

Microchip MPLAB XC8 Assembler V2.35 build 20211206165544 
                                                                                               Fri Aug 05 07:14:21 2022

Microchip MPLAB XC8 C Compiler v2.35 (Free license) build 20211206165544 Og1 
     1                           	processor	16F887
     2                           	pagewidth 120
     3                           	opt	flic
     4                           	psect	strings,global,class=STRING,delta=2,noexec
     5                           	psect	cinit,global,class=CODE,merge=1,delta=2
     6                           	psect	bssCOMMON,global,class=COMMON,space=1,delta=1,noexec
     7                           	psect	bssBANK1,global,class=BANK1,space=1,delta=1,noexec
     8                           	psect	cstackBANK1,global,class=BANK1,space=1,delta=1,noexec
     9                           	psect	cstackCOMMON,global,class=COMMON,space=1,delta=1,noexec
    10                           	psect	cstackBANK0,global,class=BANK0,space=1,delta=1,noexec
    11                           	psect	maintext,global,class=CODE,split=1,delta=2
    12                           	psect	text1,local,class=CODE,merge=1,delta=2,group=1
    13                           	psect	text2,local,class=CODE,merge=1,delta=2,group=2
    14                           	psect	text3,local,class=CODE,merge=1,delta=2,group=2
    15                           	psect	text4,local,class=CODE,merge=1,delta=2
    16                           	psect	text5,local,class=CODE,merge=1,delta=2
    17                           	psect	text6,local,class=CODE,merge=1,delta=2
    18                           	psect	text7,local,class=CODE,merge=1,delta=2
    19                           	psect	text8,local,class=CODE,merge=1,delta=2
    20                           	psect	text9,local,class=CODE,merge=1,delta=2
    21                           	psect	text10,local,class=CODE,merge=1,delta=2,group=2
    22                           	psect	text11,local,class=CODE,merge=1,delta=2,group=2
    23                           	psect	text12,local,class=CODE,merge=1,delta=2,group=2
    24                           	psect	text13,local,class=CODE,merge=1,delta=2,group=2
    25                           	psect	text14,local,class=CODE,merge=1,delta=2,group=2
    26                           	psect	text15,local,class=CODE,merge=1,delta=2,group=2
    27                           	psect	text16,local,class=CODE,merge=1,delta=2
    28                           	psect	text17,local,class=CODE,merge=1,delta=2,group=2
    29                           	psect	text18,local,class=CODE,merge=1,delta=2
    30                           	psect	text19,local,class=CODE,merge=1,delta=2
    31                           	psect	text20,local,class=CODE,merge=1,delta=2
    32                           	psect	text21,local,class=CODE,merge=1,delta=2
    33                           	psect	text22,local,class=CODE,merge=1,delta=2
    34                           	psect	text23,local,class=CODE,merge=1,delta=2
    35                           	psect	text24,local,class=CODE,merge=1,delta=2
    36                           	psect	text25,local,class=CODE,merge=1,delta=2
    37                           	psect	intentry,global,class=CODE,delta=2
    38                           	psect	text26,local,class=CODE,merge=1,delta=2
    39                           	psect	text27,local,class=CODE,merge=1,delta=2
    40                           	psect	idloc,global,abs,ovrld,class=IDLOC,space=5,delta=2,noexec
    41                           	psect	config,global,abs,ovrld,class=CONFIG,space=4,delta=2,noexec
    42                           	dabs	1,0x7E,2
    43  0000                     
    44                           ; Version 2.40
    45                           ; Generated 17/11/2021 GMT
    46                           ; 
    47                           ; Copyright © 2021, Microchip Technology Inc. and its subsidiaries ("Microchip")
    48                           ; All rights reserved.
    49                           ; 
    50                           ; This software is developed by Microchip Technology Inc. and its subsidiaries ("Microch
      +                          ip").
    51                           ; 
    52                           ; Redistribution and use in source and binary forms, with or without modification, are
    53                           ; permitted provided that the following conditions are met:
    54                           ; 
    55                           ;     1. Redistributions of source code must retain the above copyright notice, this lis
      +                          t of
    56                           ;        conditions and the following disclaimer.
    57                           ; 
    58                           ;     2. Redistributions in binary form must reproduce the above copyright notice, this 
      +                          list
    59                           ;        of conditions and the following disclaimer in the documentation and/or other
    60                           ;        materials provided with the distribution. Publication is not required when
    61                           ;        this file is used in an embedded application.
    62                           ; 
    63                           ;     3. Microchip's name may not be used to endorse or promote products derived from th
      +                          is
    64                           ;        software without specific prior written permission.
    65                           ; 
    66                           ; THIS SOFTWARE IS PROVIDED BY MICROCHIP "AS IS" AND ANY EXPRESS OR IMPLIED WARRANTIES,
    67                           ; INCLUDING, BUT NOT LIMITED TO, THE IMPLIED WARRANTIES OF MERCHANTABILITY AND FITNESS F
      +                          OR
    68                           ; PURPOSE ARE DISCLAIMED.  IN NO EVENT SHALL MICROCHIP BE LIABLE FOR ANY DIRECT, INDIREC
      +                          T,
    69                           ; INCIDENTAL, SPECIAL, EXEMPLARY, OR CONSEQUENTIAL DAMAGES (INCLUDING BUT NOT LIMITED TO
    70                           ; PROCUREMENT OF SUBSTITUTE GOODS OR SERVICES; LOSS OF USE, DATA OR PROFITS; OR BUSINESS
    71                           ; INTERRUPTION) HOWSOEVER CAUSED AND ON ANY THEORY OF LIABILITY, WHETHER IN CONTRACT, ST
      +                          RICT
    72                           ; LIABILITY, OR TORT (INCLUDING NEGLIGENCE OR OTHERWISE) ARISING IN ANY WAY OUT OF THE U
      +                          SE OF
    73                           ; THIS SOFTWARE, EVEN IF ADVISED OF THE POSSIBILITY OF SUCH DAMAGE.
    74                           ; 
    75                           ; 
    76                           ; Code-generator required, PIC16F887 Definitions
    77                           ; 
    78                           ; SFR Addresses
    79  0000                     	;# 
    80  0001                     	;# 
    81  0002                     	;# 
    82  0003                     	;# 
    83  0004                     	;# 
    84  0005                     	;# 
    85  0006                     	;# 
    86  0007                     	;# 
    87  0008                     	;# 
    88  0009                     	;# 
    89  000A                     	;# 
    90  000B                     	;# 
    91  000C                     	;# 
    92  000D                     	;# 
    93  000E                     	;# 
    94  000E                     	;# 
    95  000F                     	;# 
    96  0010                     	;# 
    97  0011                     	;# 
    98  0012                     	;# 
    99  0013                     	;# 
   100  0014                     	;# 
   101  0015                     	;# 
   102  0015                     	;# 
   103  0016                     	;# 
   104  0017                     	;# 
   105  0018                     	;# 
   106  0019                     	;# 
   107  001A                     	;# 
   108  001B                     	;# 
   109  001B                     	;# 
   110  001C                     	;# 
   111  001D                     	;# 
   112  001E                     	;# 
   113  001F                     	;# 
   114  0081                     	;# 
   115  0085                     	;# 
   116  0086                     	;# 
   117  0087                     	;# 
   118  0088                     	;# 
   119  0089                     	;# 
   120  008C                     	;# 
   121  008D                     	;# 
   122  008E                     	;# 
   123  008F                     	;# 
   124  0090                     	;# 
   125  0091                     	;# 
   126  0092                     	;# 
   127  0093                     	;# 
   128  0093                     	;# 
   129  0093                     	;# 
   130  0094                     	;# 
   131  0095                     	;# 
   132  0096                     	;# 
   133  0097                     	;# 
   134  0098                     	;# 
   135  0099                     	;# 
   136  009A                     	;# 
   137  009B                     	;# 
   138  009C                     	;# 
   139  009D                     	;# 
   140  009E                     	;# 
   141  009F                     	;# 
   142  0105                     	;# 
   143  0107                     	;# 
   144  0108                     	;# 
   145  0109                     	;# 
   146  010C                     	;# 
   147  010C                     	;# 
   148  010D                     	;# 
   149  010E                     	;# 
   150  010F                     	;# 
   151  0185                     	;# 
   152  0187                     	;# 
   153  0188                     	;# 
   154  0189                     	;# 
   155  018C                     	;# 
   156  018D                     	;# 
   157  0000                     	;# 
   158  0001                     	;# 
   159  0002                     	;# 
   160  0003                     	;# 
   161  0004                     	;# 
   162  0005                     	;# 
   163  0006                     	;# 
   164  0007                     	;# 
   165  0008                     	;# 
   166  0009                     	;# 
   167  000A                     	;# 
   168  000B                     	;# 
   169  000C                     	;# 
   170  000D                     	;# 
   171  000E                     	;# 
   172  000E                     	;# 
   173  000F                     	;# 
   174  0010                     	;# 
   175  0011                     	;# 
   176  0012                     	;# 
   177  0013                     	;# 
   178  0014                     	;# 
   179  0015                     	;# 
   180  0015                     	;# 
   181  0016                     	;# 
   182  0017                     	;# 
   183  0018                     	;# 
   184  0019                     	;# 
   185  001A                     	;# 
   186  001B                     	;# 
   187  001B                     	;# 
   188  001C                     	;# 
   189  001D                     	;# 
   190  001E                     	;# 
   191  001F                     	;# 
   192  0081                     	;# 
   193  0085                     	;# 
   194  0086                     	;# 
   195  0087                     	;# 
   196  0088                     	;# 
   197  0089                     	;# 
   198  008C                     	;# 
   199  008D                     	;# 
   200  008E                     	;# 
   201  008F                     	;# 
   202  0090                     	;# 
   203  0091                     	;# 
   204  0092                     	;# 
   205  0093                     	;# 
   206  0093                     	;# 
   207  0093                     	;# 
   208  0094                     	;# 
   209  0095                     	;# 
   210  0096                     	;# 
   211  0097                     	;# 
   212  0098                     	;# 
   213  0099                     	;# 
   214  009A                     	;# 
   215  009B                     	;# 
   216  009C                     	;# 
   217  009D                     	;# 
   218  009E                     	;# 
   219  009F                     	;# 
   220  0105                     	;# 
   221  0107                     	;# 
   222  0108                     	;# 
   223  0109                     	;# 
   224  010C                     	;# 
   225  010C                     	;# 
   226  010D                     	;# 
   227  010E                     	;# 
   228  010F                     	;# 
   229  0185                     	;# 
   230  0187                     	;# 
   231  0188                     	;# 
   232  0189                     	;# 
   233  018C                     	;# 
   234  018D                     	;# 
   235  0000                     	;# 
   236  0001                     	;# 
   237  0002                     	;# 
   238  0003                     	;# 
   239  0004                     	;# 
   240  0005                     	;# 
   241  0006                     	;# 
   242  0007                     	;# 
   243  0008                     	;# 
   244  0009                     	;# 
   245  000A                     	;# 
   246  000B                     	;# 
   247  000C                     	;# 
   248  000D                     	;# 
   249  000E                     	;# 
   250  000E                     	;# 
   251  000F                     	;# 
   252  0010                     	;# 
   253  0011                     	;# 
   254  0012                     	;# 
   255  0013                     	;# 
   256  0014                     	;# 
   257  0015                     	;# 
   258  0015                     	;# 
   259  0016                     	;# 
   260  0017                     	;# 
   261  0018                     	;# 
   262  0019                     	;# 
   263  001A                     	;# 
   264  001B                     	;# 
   265  001B                     	;# 
   266  001C                     	;# 
   267  001D                     	;# 
   268  001E                     	;# 
   269  001F                     	;# 
   270  0081                     	;# 
   271  0085                     	;# 
   272  0086                     	;# 
   273  0087                     	;# 
   274  0088                     	;# 
   275  0089                     	;# 
   276  008C                     	;# 
   277  008D                     	;# 
   278  008E                     	;# 
   279  008F                     	;# 
   280  0090                     	;# 
   281  0091                     	;# 
   282  0092                     	;# 
   283  0093                     	;# 
   284  0093                     	;# 
   285  0093                     	;# 
   286  0094                     	;# 
   287  0095                     	;# 
   288  0096                     	;# 
   289  0097                     	;# 
   290  0098                     	;# 
   291  0099                     	;# 
   292  009A                     	;# 
   293  009B                     	;# 
   294  009C                     	;# 
   295  009D                     	;# 
   296  009E                     	;# 
   297  009F                     	;# 
   298  0105                     	;# 
   299  0107                     	;# 
   300  0108                     	;# 
   301  0109                     	;# 
   302  010C                     	;# 
   303  010C                     	;# 
   304  010D                     	;# 
   305  010E                     	;# 
   306  010F                     	;# 
   307  0185                     	;# 
   308  0187                     	;# 
   309  0188                     	;# 
   310  0189                     	;# 
   311  018C                     	;# 
   312  018D                     	;# 
   313  0000                     	;# 
   314  0001                     	;# 
   315  0002                     	;# 
   316  0003                     	;# 
   317  0004                     	;# 
   318  0005                     	;# 
   319  0006                     	;# 
   320  0007                     	;# 
   321  0008                     	;# 
   322  0009                     	;# 
   323  000A                     	;# 
   324  000B                     	;# 
   325  000C                     	;# 
   326  000D                     	;# 
   327  000E                     	;# 
   328  000E                     	;# 
   329  000F                     	;# 
   330  0010                     	;# 
   331  0011                     	;# 
   332  0012                     	;# 
   333  0013                     	;# 
   334  0014                     	;# 
   335  0015                     	;# 
   336  0015                     	;# 
   337  0016                     	;# 
   338  0017                     	;# 
   339  0018                     	;# 
   340  0019                     	;# 
   341  001A                     	;# 
   342  001B                     	;# 
   343  001B                     	;# 
   344  001C                     	;# 
   345  001D                     	;# 
   346  001E                     	;# 
   347  001F                     	;# 
   348  0081                     	;# 
   349  0085                     	;# 
   350  0086                     	;# 
   351  0087                     	;# 
   352  0088                     	;# 
   353  0089                     	;# 
   354  008C                     	;# 
   355  008D                     	;# 
   356  008E                     	;# 
   357  008F                     	;# 
   358  0090                     	;# 
   359  0091                     	;# 
   360  0092                     	;# 
   361  0093                     	;# 
   362  0093                     	;# 
   363  0093                     	;# 
   364  0094                     	;# 
   365  0095                     	;# 
   366  0096                     	;# 
   367  0097                     	;# 
   368  0098                     	;# 
   369  0099                     	;# 
   370  009A                     	;# 
   371  009B                     	;# 
   372  009C                     	;# 
   373  009D                     	;# 
   374  009E                     	;# 
   375  009F                     	;# 
   376  0105                     	;# 
   377  0107                     	;# 
   378  0108                     	;# 
   379  0109                     	;# 
   380  010C                     	;# 
   381  010C                     	;# 
   382  010D                     	;# 
   383  010E                     	;# 
   384  010F                     	;# 
   385  0185                     	;# 
   386  0187                     	;# 
   387  0188                     	;# 
   388  0189                     	;# 
   389  018C                     	;# 
   390  018D                     	;# 
   391  0000                     	;# 
   392  0001                     	;# 
   393  0002                     	;# 
   394  0003                     	;# 
   395  0004                     	;# 
   396  0005                     	;# 
   397  0006                     	;# 
   398  0007                     	;# 
   399  0008                     	;# 
   400  0009                     	;# 
   401  000A                     	;# 
   402  000B                     	;# 
   403  000C                     	;# 
   404  000D                     	;# 
   405  000E                     	;# 
   406  000E                     	;# 
   407  000F                     	;# 
   408  0010                     	;# 
   409  0011                     	;# 
   410  0012                     	;# 
   411  0013                     	;# 
   412  0014                     	;# 
   413  0015                     	;# 
   414  0015                     	;# 
   415  0016                     	;# 
   416  0017                     	;# 
   417  0018                     	;# 
   418  0019                     	;# 
   419  001A                     	;# 
   420  001B                     	;# 
   421  001B                     	;# 
   422  001C                     	;# 
   423  001D                     	;# 
   424  001E                     	;# 
   425  001F                     	;# 
   426  0081                     	;# 
   427  0085                     	;# 
   428  0086                     	;# 
   429  0087                     	;# 
   430  0088                     	;# 
   431  0089                     	;# 
   432  008C                     	;# 
   433  008D                     	;# 
   434  008E                     	;# 
   435  008F                     	;# 
   436  0090                     	;# 
   437  0091                     	;# 
   438  0092                     	;# 
   439  0093                     	;# 
   440  0093                     	;# 
   441  0093                     	;# 
   442  0094                     	;# 
   443  0095                     	;# 
   444  0096                     	;# 
   445  0097                     	;# 
   446  0098                     	;# 
   447  0099                     	;# 
   448  009A                     	;# 
   449  009B                     	;# 
   450  009C                     	;# 
   451  009D                     	;# 
   452  009E                     	;# 
   453  009F                     	;# 
   454  0105                     	;# 
   455  0107                     	;# 
   456  0108                     	;# 
   457  0109                     	;# 
   458  010C                     	;# 
   459  010C                     	;# 
   460  010D                     	;# 
   461  010E                     	;# 
   462  010F                     	;# 
   463  0185                     	;# 
   464  0187                     	;# 
   465  0188                     	;# 
   466  0189                     	;# 
   467  018C                     	;# 
   468  018D                     	;# 
   469  0000                     	;# 
   470  0001                     	;# 
   471  0002                     	;# 
   472  0003                     	;# 
   473  0004                     	;# 
   474  0005                     	;# 
   475  0006                     	;# 
   476  0007                     	;# 
   477  0008                     	;# 
   478  0009                     	;# 
   479  000A                     	;# 
   480  000B                     	;# 
   481  000C                     	;# 
   482  000D                     	;# 
   483  000E                     	;# 
   484  000E                     	;# 
   485  000F                     	;# 
   486  0010                     	;# 
   487  0011                     	;# 
   488  0012                     	;# 
   489  0013                     	;# 
   490  0014                     	;# 
   491  0015                     	;# 
   492  0015                     	;# 
   493  0016                     	;# 
   494  0017                     	;# 
   495  0018                     	;# 
   496  0019                     	;# 
   497  001A                     	;# 
   498  001B                     	;# 
   499  001B                     	;# 
   500  001C                     	;# 
   501  001D                     	;# 
   502  001E                     	;# 
   503  001F                     	;# 
   504  0081                     	;# 
   505  0085                     	;# 
   506  0086                     	;# 
   507  0087                     	;# 
   508  0088                     	;# 
   509  0089                     	;# 
   510  008C                     	;# 
   511  008D                     	;# 
   512  008E                     	;# 
   513  008F                     	;# 
   514  0090                     	;# 
   515  0091                     	;# 
   516  0092                     	;# 
   517  0093                     	;# 
   518  0093                     	;# 
   519  0093                     	;# 
   520  0094                     	;# 
   521  0095                     	;# 
   522  0096                     	;# 
   523  0097                     	;# 
   524  0098                     	;# 
   525  0099                     	;# 
   526  009A                     	;# 
   527  009B                     	;# 
   528  009C                     	;# 
   529  009D                     	;# 
   530  009E                     	;# 
   531  009F                     	;# 
   532  0105                     	;# 
   533  0107                     	;# 
   534  0108                     	;# 
   535  0109                     	;# 
   536  010C                     	;# 
   537  010C                     	;# 
   538  010D                     	;# 
   539  010E                     	;# 
   540  010F                     	;# 
   541  0185                     	;# 
   542  0187                     	;# 
   543  0188                     	;# 
   544  0189                     	;# 
   545  018C                     	;# 
   546  018D                     	;# 
   547                           
   548                           	psect	strings
   549  0800                     __pstrings:
   550  0800                     stringtab:
   551  0800                     __stringtab:
   552                           
   553                           ;	String table - string pointers are 1 byte each
   554  0800  1BFF               	btfsc	btemp+1,7
   555  0801  280A               	ljmp	stringcode
   556  0802  1383               	bcf	3,7
   557  0803  187F               	btfsc	btemp+1,0
   558  0804  1783               	bsf	3,7
   559  0805  0800               	movf	0,w
   560  0806  0A84               	incf	4,f
   561  0807  1903               	skipnz
   562  0808  0AFF               	incf	btemp+1,f
   563  0809  0008               	return
   564  080A                     stringcode:
   565  080A                     stringdir:
   566  080A  3008               	movlw	high stringdir
   567  080B  008A               	movwf	10
   568  080C  0804               	movf	4,w
   569  080D  0A84               	incf	4,f
   570  080E  0782               	addwf	2,f
   571  080F                     __stringbase:
   572  080F  3400               	retlw	0
   573  0810                     __end_of__stringtab:
   574  0810                     _dpowers:
   575  0810  3401               	retlw	1
   576  0811  3400               	retlw	0
   577  0812  340A               	retlw	10
   578  0813  3400               	retlw	0
   579  0814  3464               	retlw	100
   580  0815  3400               	retlw	0
   581  0816  34E8               	retlw	232
   582  0817  3403               	retlw	3
   583  0818  3410               	retlw	16
   584  0819  3427               	retlw	39
   585  081A                     __end_of_dpowers:
   586  0001                     _TMR0	set	1
   587  0007                     _PORTCbits	set	7
   588  0008                     _PORTD	set	8
   589  001E                     _ADRESH	set	30
   590  001F                     _ADCON0bits	set	31
   591  0006                     _PORTB	set	6
   592  000C                     _PIR1bits	set	12
   593  000B                     _INTCONbits	set	11
   594  003F                     _RC7	set	63
   595  0081                     _OPTION_REGbits	set	129
   596  009F                     _ADCON1bits	set	159
   597  008F                     _OSCCONbits	set	143
   598  008C                     _PIE1bits	set	140
   599  0086                     _TRISB	set	134
   600  0087                     _TRISC	set	135
   601  0088                     _TRISD	set	136
   602  0189                     _ANSELH	set	393
   603  081A                     STR_1:
   604  081A  3420               	retlw	32	;' '
   605  081B  3420               	retlw	32	;' '
   606  081C  3420               	retlw	32	;' '
   607  081D  3420               	retlw	32	;' '
   608  081E  3420               	retlw	32	;' '
   609  081F  3420               	retlw	32	;' '
   610  0820  3450               	retlw	80	;'P'
   611  0821  344F               	retlw	79	;'O'
   612  0822  3454               	retlw	84	;'T'
   613  0823  3431               	retlw	49	;'1'
   614  0824  3420               	retlw	32	;' '
   615  0825  3420               	retlw	32	;' '
   616  0826  3420               	retlw	32	;' '
   617  0827  3420               	retlw	32	;' '
   618  0828  3420               	retlw	32	;' '
   619  0829  3420               	retlw	32	;' '
   620  082A  3420               	retlw	32	;' '
   621  082B  3420               	retlw	32	;' '
   622  082C  3400               	retlw	0
   623  082D                     STR_4:
   624  082D  3420               	retlw	32	;' '
   625  082E  3420               	retlw	32	;' '
   626  082F  3420               	retlw	32	;' '
   627  0830  3420               	retlw	32	;' '
   628  0831  3420               	retlw	32	;' '
   629  0832  3420               	retlw	32	;' '
   630  0833  3425               	retlw	37	;'%'
   631  0834  3464               	retlw	100	;'d'
   632  0835  342E               	retlw	46	;'.'
   633  0836  3425               	retlw	37	;'%'
   634  0837  3464               	retlw	100	;'d'
   635  0838  3456               	retlw	86	;'V'
   636  0839  3420               	retlw	32	;' '
   637  083A  3420               	retlw	32	;' '
   638  083B  3420               	retlw	32	;' '
   639  083C  3420               	retlw	32	;' '
   640  083D  3420               	retlw	32	;' '
   641  083E  3420               	retlw	32	;' '
   642  083F  3400               	retlw	0
   643  0840                     STR_2:
   644  0840  3420               	retlw	32	;' '
   645  0841  3420               	retlw	32	;' '
   646  0842  3420               	retlw	32	;' '
   647  0843  3420               	retlw	32	;' '
   648  0844  3420               	retlw	32	;' '
   649  0845  3420               	retlw	32	;' '
   650  0846  3425               	retlw	37	;'%'
   651  0847  3464               	retlw	100	;'d'
   652  0848  342E               	retlw	46	;'.'
   653  0849  3425               	retlw	37	;'%'
   654  084A  3464               	retlw	100	;'d'
   655  084B  3456               	retlw	86	;'V'
   656  084C  3420               	retlw	32	;' '
   657  084D  3420               	retlw	32	;' '
   658  084E  3420               	retlw	32	;' '
   659  084F  3420               	retlw	32	;' '
   660  0850  3420               	retlw	32	;' '
   661  0851  3400               	retlw	0
   662  0852                     STR_3:
   663  0852  3420               	retlw	32	;' '
   664  0853  3420               	retlw	32	;' '
   665  0854  3420               	retlw	32	;' '
   666  0855  3420               	retlw	32	;' '
   667  0856  3420               	retlw	32	;' '
   668  0857  3420               	retlw	32	;' '
   669  0858  3450               	retlw	80	;'P'
   670  0859  344F               	retlw	79	;'O'
   671  085A  3454               	retlw	84	;'T'
   672  085B  3432               	retlw	50	;'2'
   673  085C  3420               	retlw	32	;' '
   674  085D  3420               	retlw	32	;' '
   675  085E  3420               	retlw	32	;' '
   676  085F  3420               	retlw	32	;' '
   677  0860  3420               	retlw	32	;' '
   678  0861  3420               	retlw	32	;' '
   679  0862  3400               	retlw	0
   680                           
   681                           	psect	cinit
   682  000F                     start_initialization:	
   683                           ; #config settings
   684                           
   685  000F                     __initialization:
   686                           
   687                           ; Clear objects allocated to COMMON
   688  000F  01F7               	clrf	__pbssCOMMON& (0+127)
   689  0010  01F8               	clrf	(__pbssCOMMON+1)& (0+127)
   690  0011  01F9               	clrf	(__pbssCOMMON+2)& (0+127)
   691  0012  01FA               	clrf	(__pbssCOMMON+3)& (0+127)
   692                           
   693                           ; Clear objects allocated to BANK1
   694  0013  1683               	bsf	3,5	;RP0=1, select bank1
   695  0014  1303               	bcf	3,6	;RP1=0, select bank1
   696  0015  01BD               	clrf	__pbssBANK1& (0+127)
   697  0016  01BE               	clrf	(__pbssBANK1+1)& (0+127)
   698  0017  01BF               	clrf	(__pbssBANK1+2)& (0+127)
   699  0018  01C0               	clrf	(__pbssBANK1+3)& (0+127)
   700  0019  01C1               	clrf	(__pbssBANK1+4)& (0+127)
   701  001A  01C2               	clrf	(__pbssBANK1+5)& (0+127)
   702  001B  01C3               	clrf	(__pbssBANK1+6)& (0+127)
   703  001C  01C4               	clrf	(__pbssBANK1+7)& (0+127)
   704  001D  01C5               	clrf	(__pbssBANK1+8)& (0+127)
   705  001E  01C6               	clrf	(__pbssBANK1+9)& (0+127)
   706  001F  01C7               	clrf	(__pbssBANK1+10)& (0+127)
   707  0020                     end_of_initialization:	
   708                           ;End of C runtime variable initialization code
   709                           
   710  0020                     __end_of__initialization:
   711  0020  0183               	clrf	3
   712  0021  120A  158A  2C9C   	ljmp	_main	;jump to C main() function
   713                           
   714                           	psect	bssCOMMON
   715  0077                     __pbssCOMMON:
   716  0077                     _ciclo_trabajo:
   717  0077                     	ds	1
   718  0078                     _bandera:
   719  0078                     	ds	1
   720  0079                     _canal_ADC:
   721  0079                     	ds	1
   722  007A                     _contador:
   723  007A                     	ds	1
   724                           
   725                           	psect	bssBANK1
   726  00BD                     __pbssBANK1:
   727  00BD                     _VOLTAJE_1:
   728  00BD                     	ds	2
   729  00BF                     _VOLTAJE_0:
   730  00BF                     	ds	2
   731  00C1                     _dec_POT_1:
   732  00C1                     	ds	1
   733  00C2                     _init_POT_1:
   734  00C2                     	ds	1
   735  00C3                     _dec_POT_0:
   736  00C3                     	ds	1
   737  00C4                     _init_POT_0:
   738  00C4                     	ds	1
   739  00C5                     _VAL_POT_1:
   740  00C5                     	ds	1
   741  00C6                     _VAL_POT_0:
   742  00C6                     	ds	1
   743  00C7                     _s:
   744  00C7                     	ds	1
   745                           
   746                           	psect	cstackBANK1
   747  00A0                     __pcstackBANK1:
   748  00A0                     ??___fladd:
   749                           
   750                           ; 1 bytes @ 0x0
   751  00A0                     	ds	8
   752  00A8                     ?___fltol:
   753  00A8                     ___fltol@f1:	
   754                           ; 4 bytes @ 0x8
   755                           
   756                           
   757                           ; 4 bytes @ 0x8
   758  00A8                     	ds	4
   759  00AC                     ??___fltol:
   760                           
   761                           ; 1 bytes @ 0xC
   762  00AC                     	ds	5
   763  00B1                     ?_map:
   764  00B1                     map@x0:	
   765                           ; 2 bytes @ 0x11
   766                           
   767                           
   768                           ; 1 bytes @ 0x11
   769  00B1                     	ds	1
   770  00B2                     map@x1:
   771                           
   772                           ; 1 bytes @ 0x12
   773  00B2                     	ds	1
   774  00B3                     map@y0:
   775                           
   776                           ; 2 bytes @ 0x13
   777  00B3                     	ds	2
   778  00B5                     map@y1:
   779                           
   780                           ; 2 bytes @ 0x15
   781  00B5                     	ds	2
   782  00B7                     map@x:
   783                           
   784                           ; 1 bytes @ 0x17
   785  00B7                     	ds	1
   786  00B8                     ??_main:
   787                           
   788                           ; 1 bytes @ 0x18
   789  00B8                     	ds	5
   790                           
   791                           	psect	cstackCOMMON
   792  0070                     __pcstackCOMMON:
   793  0070                     ?_tmr0_reload:
   794  0070                     ?_setup:	
   795                           ; 1 bytes @ 0x0
   796                           
   797  0070                     ?_Lcd_Init:	
   798                           ; 1 bytes @ 0x0
   799                           
   800  0070                     ?_Lcd_Clear:	
   801                           ; 1 bytes @ 0x0
   802                           
   803  0070                     ?_adc_start:	
   804                           ; 1 bytes @ 0x0
   805                           
   806  0070                     ?_init_osc_MHz:	
   807                           ; 1 bytes @ 0x0
   808                           
   809  0070                     ?_isr:	
   810                           ; 1 bytes @ 0x0
   811                           
   812  0070                     ?_main:	
   813                           ; 1 bytes @ 0x0
   814                           
   815  0070                     ?_Lcd_Port:	
   816                           ; 1 bytes @ 0x0
   817                           
   818  0070                     ?_Lcd_Cmd:	
   819                           ; 1 bytes @ 0x0
   820                           
   821  0070                     ?_Lcd_Write_Char:	
   822                           ; 1 bytes @ 0x0
   823                           
   824  0070                     ?i1_tmr0_reload:	
   825                           ; 1 bytes @ 0x0
   826                           
   827  0070                     ??i1_tmr0_reload:	
   828                           ; 1 bytes @ 0x0
   829                           
   830  0070                     ?_adc_read:	
   831                           ; 1 bytes @ 0x0
   832                           
   833                           
   834                           ; 2 bytes @ 0x0
   835  0070                     	ds	2
   836  0072                     ??_adc_read:
   837                           
   838                           ; 1 bytes @ 0x2
   839  0072                     	ds	2
   840  0074                     ??_isr:
   841                           
   842                           ; 1 bytes @ 0x4
   843  0074                     	ds	3
   844                           
   845                           	psect	cstackBANK0
   846  0020                     __pcstackBANK0:
   847  0020                     ??_tmr0_reload:
   848  0020                     ??_adc_start:	
   849                           ; 1 bytes @ 0x0
   850                           
   851  0020                     ??_init_osc_MHz:	
   852                           ; 1 bytes @ 0x0
   853                           
   854  0020                     ?_adc_init:	
   855                           ; 1 bytes @ 0x0
   856                           
   857  0020                     ?_tmr0_init:	
   858                           ; 1 bytes @ 0x0
   859                           
   860  0020                     ??_Lcd_Port:	
   861                           ; 1 bytes @ 0x0
   862                           
   863  0020                     ?___bmul:	
   864                           ; 1 bytes @ 0x0
   865                           
   866  0020                     ?__Umul8_16:	
   867                           ; 1 bytes @ 0x0
   868                           
   869  0020                     ?___lwdiv:	
   870                           ; 2 bytes @ 0x0
   871                           
   872  0020                     ?___xxtofl:	
   873                           ; 2 bytes @ 0x0
   874                           
   875  0020                     adc_init@vref_plus:	
   876                           ; 4 bytes @ 0x0
   877                           
   878  0020                     Lcd_Port@a:	
   879                           ; 1 bytes @ 0x0
   880                           
   881  0020                     ___bmul@multiplicand:	
   882                           ; 1 bytes @ 0x0
   883                           
   884  0020                     __Umul8_16@multiplicand:	
   885                           ; 1 bytes @ 0x0
   886                           
   887  0020                     tmr0_init@prescaler:	
   888                           ; 1 bytes @ 0x0
   889                           
   890  0020                     ___lwdiv@divisor:	
   891                           ; 2 bytes @ 0x0
   892                           
   893  0020                     ___xxtofl@val:	
   894                           ; 2 bytes @ 0x0
   895                           
   896                           
   897                           ; 4 bytes @ 0x0
   898  0020                     	ds	1
   899  0021                     ??_Lcd_Cmd:
   900  0021                     ??_Lcd_Write_Char:	
   901                           ; 1 bytes @ 0x1
   902                           
   903  0021                     ??___bmul:	
   904                           ; 1 bytes @ 0x1
   905                           
   906  0021                     adc_init@vref_minus:	
   907                           ; 1 bytes @ 0x1
   908                           
   909  0021                     adc_start@channel:	
   910                           ; 1 bytes @ 0x1
   911                           
   912                           
   913                           ; 1 bytes @ 0x1
   914  0021                     	ds	1
   915  0022                     ??_adc_init:
   916  0022                     ??_tmr0_init:	
   917                           ; 1 bytes @ 0x2
   918                           
   919  0022                     ??__Umul8_16:	
   920                           ; 1 bytes @ 0x2
   921                           
   922  0022                     init_osc_MHz@freq:	
   923                           ; 1 bytes @ 0x2
   924                           
   925  0022                     Lcd_Write_Char@a:	
   926                           ; 1 bytes @ 0x2
   927                           
   928  0022                     ___bmul@product:	
   929                           ; 1 bytes @ 0x2
   930                           
   931  0022                     ___lwdiv@dividend:	
   932                           ; 1 bytes @ 0x2
   933                           
   934                           
   935                           ; 2 bytes @ 0x2
   936  0022                     	ds	1
   937  0023                     ?_Lcd_Write_String:
   938  0023                     Lcd_Cmd@a:	
   939                           ; 1 bytes @ 0x3
   940                           
   941  0023                     ___bmul@multiplier:	
   942                           ; 1 bytes @ 0x3
   943                           
   944  0023                     Lcd_Write_String@a:	
   945                           ; 1 bytes @ 0x3
   946                           
   947                           
   948                           ; 2 bytes @ 0x3
   949  0023                     	ds	1
   950  0024                     ??_Lcd_Init:
   951  0024                     ??_Lcd_Clear:	
   952                           ; 1 bytes @ 0x4
   953                           
   954  0024                     ?_Lcd_Set_Cursor:	
   955                           ; 1 bytes @ 0x4
   956                           
   957  0024                     ??___lwdiv:	
   958                           ; 1 bytes @ 0x4
   959                           
   960  0024                     ??___xxtofl:	
   961                           ; 1 bytes @ 0x4
   962                           
   963  0024                     adc_init@adc_cs:	
   964                           ; 1 bytes @ 0x4
   965                           
   966  0024                     Lcd_Set_Cursor@b:	
   967                           ; 1 bytes @ 0x4
   968                           
   969  0024                     __Umul8_16@product:	
   970                           ; 1 bytes @ 0x4
   971                           
   972                           
   973                           ; 2 bytes @ 0x4
   974  0024                     	ds	1
   975  0025                     ??_setup:
   976  0025                     ??_Lcd_Set_Cursor:	
   977                           ; 1 bytes @ 0x5
   978                           
   979  0025                     ??_Lcd_Write_String:	
   980                           ; 1 bytes @ 0x5
   981                           
   982  0025                     ___lwdiv@quotient:	
   983                           ; 1 bytes @ 0x5
   984                           
   985                           
   986                           ; 2 bytes @ 0x5
   987  0025                     	ds	1
   988  0026                     Lcd_Set_Cursor@a:
   989  0026                     __Umul8_16@word_mpld:	
   990                           ; 1 bytes @ 0x6
   991                           
   992                           
   993                           ; 2 bytes @ 0x6
   994  0026                     	ds	1
   995  0027                     Lcd_Set_Cursor@temp:
   996  0027                     ___lwdiv@counter:	
   997                           ; 1 bytes @ 0x7
   998                           
   999                           
  1000                           ; 1 bytes @ 0x7
  1001  0027                     	ds	1
  1002  0028                     ?___lwmod:
  1003  0028                     __Umul8_16@multiplier:	
  1004                           ; 2 bytes @ 0x8
  1005                           
  1006  0028                     ___xxtofl@sign:	
  1007                           ; 1 bytes @ 0x8
  1008                           
  1009  0028                     Lcd_Write_String@i:	
  1010                           ; 1 bytes @ 0x8
  1011                           
  1012  0028                     ___lwmod@divisor:	
  1013                           ; 2 bytes @ 0x8
  1014                           
  1015                           
  1016                           ; 2 bytes @ 0x8
  1017  0028                     	ds	1
  1018  0029                     ___xxtofl@exp:
  1019                           
  1020                           ; 1 bytes @ 0x9
  1021  0029                     	ds	1
  1022  002A                     ___lwmod@dividend:
  1023  002A                     ___xxtofl@arg:	
  1024                           ; 2 bytes @ 0xA
  1025                           
  1026                           
  1027                           ; 4 bytes @ 0xA
  1028  002A                     	ds	2
  1029  002C                     ??___lwmod:
  1030                           
  1031                           ; 1 bytes @ 0xC
  1032  002C                     	ds	1
  1033  002D                     ___lwmod@counter:
  1034                           
  1035                           ; 1 bytes @ 0xD
  1036  002D                     	ds	1
  1037  002E                     ?_sprintf:
  1038  002E                     ?___fldiv:	
  1039                           ; 2 bytes @ 0xE
  1040                           
  1041  002E                     sprintf@f:	
  1042                           ; 4 bytes @ 0xE
  1043                           
  1044  002E                     ___fldiv@a:	
  1045                           ; 1 bytes @ 0xE
  1046                           
  1047                           
  1048                           ; 4 bytes @ 0xE
  1049  002E                     	ds	4
  1050  0032                     ___fldiv@b:
  1051                           
  1052                           ; 4 bytes @ 0x12
  1053  0032                     	ds	1
  1054  0033                     ??_sprintf:
  1055                           
  1056                           ; 1 bytes @ 0x13
  1057  0033                     	ds	3
  1058  0036                     ??___fldiv:
  1059  0036                     sprintf@ap:	
  1060                           ; 1 bytes @ 0x16
  1061                           
  1062                           
  1063                           ; 1 bytes @ 0x16
  1064  0036                     	ds	1
  1065  0037                     sprintf@flag:
  1066                           
  1067                           ; 1 bytes @ 0x17
  1068  0037                     	ds	1
  1069  0038                     sprintf@prec:
  1070                           
  1071                           ; 1 bytes @ 0x18
  1072  0038                     	ds	1
  1073  0039                     sprintf@val:
  1074                           
  1075                           ; 2 bytes @ 0x19
  1076  0039                     	ds	2
  1077  003B                     sprintf@sp:
  1078  003B                     ___fldiv@rem:	
  1079                           ; 1 bytes @ 0x1B
  1080                           
  1081                           
  1082                           ; 4 bytes @ 0x1B
  1083  003B                     	ds	1
  1084  003C                     sprintf@c:
  1085                           
  1086                           ; 1 bytes @ 0x1C
  1087  003C                     	ds	3
  1088  003F                     ___fldiv@sign:
  1089                           
  1090                           ; 1 bytes @ 0x1F
  1091  003F                     	ds	1
  1092  0040                     ___fldiv@new_exp:
  1093                           
  1094                           ; 2 bytes @ 0x20
  1095  0040                     	ds	2
  1096  0042                     ___fldiv@grs:
  1097                           
  1098                           ; 4 bytes @ 0x22
  1099  0042                     	ds	4
  1100  0046                     ___fldiv@bexp:
  1101                           
  1102                           ; 1 bytes @ 0x26
  1103  0046                     	ds	1
  1104  0047                     ___fldiv@aexp:
  1105                           
  1106                           ; 1 bytes @ 0x27
  1107  0047                     	ds	1
  1108  0048                     ?___flmul:
  1109  0048                     ___flmul@b:	
  1110                           ; 4 bytes @ 0x28
  1111                           
  1112                           
  1113                           ; 4 bytes @ 0x28
  1114  0048                     	ds	4
  1115  004C                     ___flmul@a:
  1116                           
  1117                           ; 4 bytes @ 0x2C
  1118  004C                     	ds	4
  1119  0050                     ??___flmul:
  1120                           
  1121                           ; 1 bytes @ 0x30
  1122  0050                     	ds	5
  1123  0055                     ___flmul@sign:
  1124                           
  1125                           ; 1 bytes @ 0x35
  1126  0055                     	ds	1
  1127  0056                     ___flmul@grs:
  1128                           
  1129                           ; 4 bytes @ 0x36
  1130  0056                     	ds	4
  1131  005A                     ___flmul@aexp:
  1132                           
  1133                           ; 1 bytes @ 0x3A
  1134  005A                     	ds	1
  1135  005B                     ___flmul@bexp:
  1136                           
  1137                           ; 1 bytes @ 0x3B
  1138  005B                     	ds	1
  1139  005C                     ___flmul@prod:
  1140                           
  1141                           ; 4 bytes @ 0x3C
  1142  005C                     	ds	4
  1143  0060                     ___flmul@temp:
  1144                           
  1145                           ; 2 bytes @ 0x40
  1146  0060                     	ds	2
  1147  0062                     ?___fladd:
  1148  0062                     ___fladd@b:	
  1149                           ; 4 bytes @ 0x42
  1150                           
  1151                           
  1152                           ; 4 bytes @ 0x42
  1153  0062                     	ds	4
  1154  0066                     ___fladd@a:
  1155                           
  1156                           ; 4 bytes @ 0x46
  1157  0066                     	ds	4
  1158  006A                     ___fladd@signs:
  1159                           
  1160                           ; 1 bytes @ 0x4A
  1161  006A                     	ds	1
  1162  006B                     ___fladd@aexp:
  1163                           
  1164                           ; 1 bytes @ 0x4B
  1165  006B                     	ds	1
  1166  006C                     ___fladd@bexp:
  1167                           
  1168                           ; 1 bytes @ 0x4C
  1169  006C                     	ds	1
  1170  006D                     ___fladd@grs:
  1171                           
  1172                           ; 1 bytes @ 0x4D
  1173  006D                     	ds	1
  1174  006E                     ___fltol@sign1:
  1175                           
  1176                           ; 1 bytes @ 0x4E
  1177  006E                     	ds	1
  1178  006F                     ___fltol@exp1:
  1179                           
  1180                           ; 1 bytes @ 0x4F
  1181  006F                     	ds	1
  1182  0070                     ??_map:
  1183                           
  1184                           	psect	maintext
  1185  0C9C                     __pmaintext:	
  1186                           ; 1 bytes @ 0x50
  1187 ;;
  1188 ;;Main: autosize = 0, tempsize = 5, incstack = 0, save=0
  1189 ;;
  1190 ;; *************** function _main *****************
  1191 ;; Defined at:
  1192 ;;		line 91 in file "main2.c"
  1193 ;; Parameters:    Size  Location     Type
  1194 ;;		None
  1195 ;; Auto vars:     Size  Location     Type
  1196 ;;  a               2    0        unsigned int 
  1197 ;; Return value:  Size  Location     Type
  1198 ;;                  1    wreg      void 
  1199 ;; Registers used:
  1200 ;;		wreg, fsr0l, fsr0h, status,2, status,0, btemp+1, pclath, cstack
  1201 ;; Tracked objects:
  1202 ;;		On entry : B00/0
  1203 ;;		On exit  : 0/0
  1204 ;;		Unchanged: 0/0
  1205 ;; Data sizes:     COMMON   BANK0   BANK1   BANK3   BANK2
  1206 ;;      Params:         0       0       0       0       0
  1207 ;;      Locals:         0       0       0       0       0
  1208 ;;      Temps:          0       0       5       0       0
  1209 ;;      Totals:         0       0       5       0       0
  1210 ;;Total ram usage:        5 bytes
  1211 ;; Hardware stack levels required when called: 5
  1212 ;; This function calls:
  1213 ;;		_Lcd_Clear
  1214 ;;		_Lcd_Init
  1215 ;;		_Lcd_Set_Cursor
  1216 ;;		_Lcd_Write_String
  1217 ;;		___bmul
  1218 ;;		___lwdiv
  1219 ;;		_adc_start
  1220 ;;		_map
  1221 ;;		_setup
  1222 ;;		_sprintf
  1223 ;; This function is called by:
  1224 ;;		Startup code after reset
  1225 ;; This function uses a non-reentrant model
  1226 ;;
  1227                           
  1228  0C9C                     _main:	
  1229                           ;psect for function _main
  1230                           
  1231  0C9C                     l3096:	
  1232                           ;incstack = 0
  1233                           ; Regs used in _main: [wreg-fsr0h+status,2+status,0+btemp+1+pclath+cstack]
  1234                           
  1235                           
  1236                           ;main2.c: 92:     setup();
  1237  0C9C  160A  118A  278C  120A  158A  	fcall	_setup
  1238  0CA1                     l3098:
  1239                           
  1240                           ;main2.c: 93:     unsigned int a;;main2.c: 94:     Lcd_Init();
  1241  0CA1  120A  158A  213B  120A  158A  	fcall	_Lcd_Init
  1242  0CA6                     l3100:
  1243                           
  1244                           ;main2.c: 95:     Lcd_Clear();
  1245  0CA6  160A  118A  26E5  120A  158A  	fcall	_Lcd_Clear
  1246  0CAB                     l3102:
  1247                           
  1248                           ;main2.c: 102:         if (canal_ADC == 0){
  1249  0CAB  0879               	movf	_canal_ADC,w
  1250  0CAC  1D03               	btfss	3,2
  1251  0CAD  2CAF               	goto	u3641
  1252  0CAE  2CB0               	goto	u3640
  1253  0CAF                     u3641:
  1254  0CAF  2D06               	goto	l3114
  1255  0CB0                     u3640:
  1256  0CB0                     l3104:
  1257                           
  1258                           ;main2.c: 103:             adc_start(canal_ADC);
  1259  0CB0  0879               	movf	_canal_ADC,w
  1260  0CB1  160A  118A  2742  120A  158A  	fcall	_adc_start
  1261  0CB6                     l3106:
  1262                           
  1263                           ;main2.c: 104:             canal_ADC = 1;
  1264  0CB6  01F9               	clrf	_canal_ADC
  1265  0CB7  0AF9               	incf	_canal_ADC,f
  1266  0CB8                     l3108:
  1267                           
  1268                           ;main2.c: 105:             VOLTAJE_0 = map(VAL_POT_0, 0, 255, 0, 500);
  1269  0CB8  1683               	bsf	3,5	;RP0=1, select bank1
  1270  0CB9  1303               	bcf	3,6	;RP1=0, select bank1
  1271  0CBA  01B1               	clrf	map@x0^(0+128)
  1272  0CBB  30FF               	movlw	255
  1273  0CBC  00B8               	movwf	??_main^(0+128)
  1274  0CBD  0838               	movf	??_main^(0+128),w
  1275  0CBE  00B2               	movwf	map@x1^(0+128)
  1276  0CBF  3000               	movlw	0
  1277  0CC0  00B3               	movwf	map@y0^(0+128)
  1278  0CC1  00B4               	movwf	(map@y0+1)^(0+128)
  1279  0CC2  30F4               	movlw	244
  1280  0CC3  00B5               	movwf	map@y1^(0+128)
  1281  0CC4  3001               	movlw	1
  1282  0CC5  00B6               	movwf	(map@y1^(0+128)+1)
  1283  0CC6  0846               	movf	_VAL_POT_0^(0+128),w
  1284  0CC7  120A  158A  23D6  120A  158A  	fcall	_map
  1285  0CCC  1683               	bsf	3,5	;RP0=1, select bank1
  1286  0CCD  1303               	bcf	3,6	;RP1=0, select bank1
  1287  0CCE  0832               	movf	(?_map+1)^(0+128),w
  1288  0CCF  00C0               	movwf	(_VOLTAJE_0+1)^(0+128)
  1289  0CD0  0831               	movf	?_map^(0+128),w
  1290  0CD1  00BF               	movwf	_VOLTAJE_0^(0+128)
  1291  0CD2                     l3110:
  1292                           
  1293                           ;main2.c: 106:             init_POT_0 = VOLTAJE_0/100;
  1294  0CD2  3064               	movlw	100
  1295  0CD3  1283               	bcf	3,5	;RP0=0, select bank0
  1296  0CD4  1303               	bcf	3,6	;RP1=0, select bank0
  1297  0CD5  00A0               	movwf	___lwdiv@divisor
  1298  0CD6  3000               	movlw	0
  1299  0CD7  00A1               	movwf	___lwdiv@divisor+1
  1300  0CD8  1683               	bsf	3,5	;RP0=1, select bank1
  1301  0CD9  1303               	bcf	3,6	;RP1=0, select bank1
  1302  0CDA  0840               	movf	(_VOLTAJE_0+1)^(0+128),w
  1303  0CDB  1283               	bcf	3,5	;RP0=0, select bank0
  1304  0CDC  1303               	bcf	3,6	;RP1=0, select bank0
  1305  0CDD  00A3               	movwf	___lwdiv@dividend+1
  1306  0CDE  1683               	bsf	3,5	;RP0=1, select bank1
  1307  0CDF  1303               	bcf	3,6	;RP1=0, select bank1
  1308  0CE0  083F               	movf	_VOLTAJE_0^(0+128),w
  1309  0CE1  1283               	bcf	3,5	;RP0=0, select bank0
  1310  0CE2  1303               	bcf	3,6	;RP1=0, select bank0
  1311  0CE3  00A2               	movwf	___lwdiv@dividend
  1312  0CE4  120A  158A  20AA  120A  158A  	fcall	___lwdiv
  1313  0CE9  1283               	bcf	3,5	;RP0=0, select bank0
  1314  0CEA  1303               	bcf	3,6	;RP1=0, select bank0
  1315  0CEB  0820               	movf	?___lwdiv,w
  1316  0CEC  1683               	bsf	3,5	;RP0=1, select bank1
  1317  0CED  1303               	bcf	3,6	;RP1=0, select bank1
  1318  0CEE  00B8               	movwf	??_main^(0+128)
  1319  0CEF  0838               	movf	??_main^(0+128),w
  1320  0CF0  00C4               	movwf	_init_POT_0^(0+128)
  1321  0CF1                     l3112:
  1322                           
  1323                           ;main2.c: 107:             dec_POT_0 = VOLTAJE_0-init_POT_0*100;
  1324  0CF1  309C               	movlw	156
  1325  0CF2  00B8               	movwf	??_main^(0+128)
  1326  0CF3  0838               	movf	??_main^(0+128),w
  1327  0CF4  1283               	bcf	3,5	;RP0=0, select bank0
  1328  0CF5  1303               	bcf	3,6	;RP1=0, select bank0
  1329  0CF6  00A0               	movwf	___bmul@multiplicand
  1330  0CF7  1683               	bsf	3,5	;RP0=1, select bank1
  1331  0CF8  1303               	bcf	3,6	;RP1=0, select bank1
  1332  0CF9  0844               	movf	_init_POT_0^(0+128),w
  1333  0CFA  160A  118A  26F7  120A  158A  	fcall	___bmul
  1334  0CFF  1683               	bsf	3,5	;RP0=1, select bank1
  1335  0D00  1303               	bcf	3,6	;RP1=0, select bank1
  1336  0D01  073F               	addwf	_VOLTAJE_0^(0+128),w
  1337  0D02  00B9               	movwf	(??_main+1)^(0+128)
  1338  0D03  0839               	movf	(??_main+1)^(0+128),w
  1339  0D04  00C3               	movwf	_dec_POT_0^(0+128)
  1340                           
  1341                           ;main2.c: 108:         }
  1342  0D05  2D5F               	goto	l3126
  1343  0D06                     l3114:
  1344  0D06  0379               	decf	_canal_ADC,w
  1345  0D07  1D03               	btfss	3,2
  1346  0D08  2D0A               	goto	u3651
  1347  0D09  2D0B               	goto	u3650
  1348  0D0A                     u3651:
  1349  0D0A  2D5F               	goto	l3126
  1350  0D0B                     u3650:
  1351  0D0B                     l3116:
  1352                           
  1353                           ;main2.c: 110:             adc_start(canal_ADC);
  1354  0D0B  0879               	movf	_canal_ADC,w
  1355  0D0C  160A  118A  2742  120A  158A  	fcall	_adc_start
  1356  0D11                     l3118:
  1357                           
  1358                           ;main2.c: 111:             canal_ADC = 0;
  1359  0D11  01F9               	clrf	_canal_ADC
  1360  0D12                     l3120:
  1361                           
  1362                           ;main2.c: 112:             VOLTAJE_1 = map(VAL_POT_1, 0, 255, 0, 500);
  1363  0D12  1683               	bsf	3,5	;RP0=1, select bank1
  1364  0D13  1303               	bcf	3,6	;RP1=0, select bank1
  1365  0D14  01B1               	clrf	map@x0^(0+128)
  1366  0D15  30FF               	movlw	255
  1367  0D16  00B8               	movwf	??_main^(0+128)
  1368  0D17  0838               	movf	??_main^(0+128),w
  1369  0D18  00B2               	movwf	map@x1^(0+128)
  1370  0D19  3000               	movlw	0
  1371  0D1A  00B3               	movwf	map@y0^(0+128)
  1372  0D1B  00B4               	movwf	(map@y0+1)^(0+128)
  1373  0D1C  30F4               	movlw	244
  1374  0D1D  00B5               	movwf	map@y1^(0+128)
  1375  0D1E  3001               	movlw	1
  1376  0D1F  00B6               	movwf	(map@y1^(0+128)+1)
  1377  0D20  0845               	movf	_VAL_POT_1^(0+128),w
  1378  0D21  120A  158A  23D6  120A  158A  	fcall	_map
  1379  0D26  1683               	bsf	3,5	;RP0=1, select bank1
  1380  0D27  1303               	bcf	3,6	;RP1=0, select bank1
  1381  0D28  0832               	movf	(?_map+1)^(0+128),w
  1382  0D29  00BE               	movwf	(_VOLTAJE_1+1)^(0+128)
  1383  0D2A  0831               	movf	?_map^(0+128),w
  1384  0D2B  00BD               	movwf	_VOLTAJE_1^(0+128)
  1385  0D2C                     l3122:
  1386                           
  1387                           ;main2.c: 113:             init_POT_1 = VOLTAJE_1/100;
  1388  0D2C  3064               	movlw	100
  1389  0D2D  1283               	bcf	3,5	;RP0=0, select bank0
  1390  0D2E  1303               	bcf	3,6	;RP1=0, select bank0
  1391  0D2F  00A0               	movwf	___lwdiv@divisor
  1392  0D30  3000               	movlw	0
  1393  0D31  00A1               	movwf	___lwdiv@divisor+1
  1394  0D32  1683               	bsf	3,5	;RP0=1, select bank1
  1395  0D33  1303               	bcf	3,6	;RP1=0, select bank1
  1396  0D34  083E               	movf	(_VOLTAJE_1+1)^(0+128),w
  1397  0D35  1283               	bcf	3,5	;RP0=0, select bank0
  1398  0D36  1303               	bcf	3,6	;RP1=0, select bank0
  1399  0D37  00A3               	movwf	___lwdiv@dividend+1
  1400  0D38  1683               	bsf	3,5	;RP0=1, select bank1
  1401  0D39  1303               	bcf	3,6	;RP1=0, select bank1
  1402  0D3A  083D               	movf	_VOLTAJE_1^(0+128),w
  1403  0D3B  1283               	bcf	3,5	;RP0=0, select bank0
  1404  0D3C  1303               	bcf	3,6	;RP1=0, select bank0
  1405  0D3D  00A2               	movwf	___lwdiv@dividend
  1406  0D3E  120A  158A  20AA  120A  158A  	fcall	___lwdiv
  1407  0D43  1283               	bcf	3,5	;RP0=0, select bank0
  1408  0D44  1303               	bcf	3,6	;RP1=0, select bank0
  1409  0D45  0820               	movf	?___lwdiv,w
  1410  0D46  1683               	bsf	3,5	;RP0=1, select bank1
  1411  0D47  1303               	bcf	3,6	;RP1=0, select bank1
  1412  0D48  00B8               	movwf	??_main^(0+128)
  1413  0D49  0838               	movf	??_main^(0+128),w
  1414  0D4A  00C2               	movwf	_init_POT_1^(0+128)
  1415  0D4B                     l3124:
  1416                           
  1417                           ;main2.c: 114:             dec_POT_1 = VOLTAJE_1-init_POT_1*100;
  1418  0D4B  309C               	movlw	156
  1419  0D4C  00B8               	movwf	??_main^(0+128)
  1420  0D4D  0838               	movf	??_main^(0+128),w
  1421  0D4E  1283               	bcf	3,5	;RP0=0, select bank0
  1422  0D4F  1303               	bcf	3,6	;RP1=0, select bank0
  1423  0D50  00A0               	movwf	___bmul@multiplicand
  1424  0D51  1683               	bsf	3,5	;RP0=1, select bank1
  1425  0D52  1303               	bcf	3,6	;RP1=0, select bank1
  1426  0D53  0842               	movf	_init_POT_1^(0+128),w
  1427  0D54  160A  118A  26F7  120A  158A  	fcall	___bmul
  1428  0D59  1683               	bsf	3,5	;RP0=1, select bank1
  1429  0D5A  1303               	bcf	3,6	;RP1=0, select bank1
  1430  0D5B  073D               	addwf	_VOLTAJE_1^(0+128),w
  1431  0D5C  00B9               	movwf	(??_main+1)^(0+128)
  1432  0D5D  0839               	movf	(??_main+1)^(0+128),w
  1433  0D5E  00C1               	movwf	_dec_POT_1^(0+128)
  1434  0D5F                     l3126:
  1435                           
  1436                           ;main2.c: 116:         if(bandera == 1){
  1437  0D5F  0378               	decf	_bandera,w
  1438  0D60  1D03               	btfss	3,2
  1439  0D61  2D63               	goto	u3661
  1440  0D62  2D64               	goto	u3660
  1441  0D63                     u3661:
  1442  0D63  2DC5               	goto	l3138
  1443  0D64                     u3660:
  1444  0D64                     l3128:
  1445                           
  1446                           ;main2.c: 117:             Lcd_Set_Cursor(1,1);
  1447  0D64  1283               	bcf	3,5	;RP0=0, select bank0
  1448  0D65  1303               	bcf	3,6	;RP1=0, select bank0
  1449  0D66  01A4               	clrf	Lcd_Set_Cursor@b
  1450  0D67  0AA4               	incf	Lcd_Set_Cursor@b,f
  1451  0D68  3001               	movlw	1
  1452  0D69  160A  118A  2766  120A  158A  	fcall	_Lcd_Set_Cursor
  1453  0D6E                     l3130:
  1454                           
  1455                           ;main2.c: 118:             Lcd_Write_String("      POT1        ");
  1456  0D6E  300B               	movlw	(low ((STR_1-__stringbase)| (0+32768)))& (0+255)
  1457  0D6F  1283               	bcf	3,5	;RP0=0, select bank0
  1458  0D70  1303               	bcf	3,6	;RP1=0, select bank0
  1459  0D71  00A3               	movwf	Lcd_Write_String@a
  1460  0D72  3080               	movlw	128
  1461  0D73  00A4               	movwf	Lcd_Write_String@a+1
  1462  0D74  120A  158A  2064  120A  158A  	fcall	_Lcd_Write_String
  1463  0D79                     l3132:
  1464                           
  1465                           ;main2.c: 119:             Lcd_Set_Cursor(2,1);
  1466  0D79  1283               	bcf	3,5	;RP0=0, select bank0
  1467  0D7A  1303               	bcf	3,6	;RP1=0, select bank0
  1468  0D7B  01A4               	clrf	Lcd_Set_Cursor@b
  1469  0D7C  0AA4               	incf	Lcd_Set_Cursor@b,f
  1470  0D7D  3002               	movlw	2
  1471  0D7E  160A  118A  2766  120A  158A  	fcall	_Lcd_Set_Cursor
  1472                           
  1473                           ;main2.c: 120:             sprintf(s, "      %d.%dV     ", init_POT_0, dec_POT_0);
  1474  0D83  3031               	movlw	(low ((STR_2-__stringbase)| (0+32768)))& (0+255)
  1475  0D84  1683               	bsf	3,5	;RP0=1, select bank1
  1476  0D85  1303               	bcf	3,6	;RP1=0, select bank1
  1477  0D86  00B8               	movwf	??_main^(0+128)
  1478  0D87  0838               	movf	??_main^(0+128),w
  1479  0D88  1283               	bcf	3,5	;RP0=0, select bank0
  1480  0D89  1303               	bcf	3,6	;RP1=0, select bank0
  1481  0D8A  00AE               	movwf	sprintf@f
  1482  0D8B  1683               	bsf	3,5	;RP0=1, select bank1
  1483  0D8C  1303               	bcf	3,6	;RP1=0, select bank1
  1484  0D8D  0844               	movf	_init_POT_0^(0+128),w
  1485  0D8E  00B9               	movwf	(??_main+1)^(0+128)
  1486  0D8F  01BA               	clrf	((??_main+1)^(0+128)+1)
  1487  0D90  0839               	movf	(??_main+1)^(0+128),w
  1488  0D91  1283               	bcf	3,5	;RP0=0, select bank0
  1489  0D92  1303               	bcf	3,6	;RP1=0, select bank0
  1490  0D93  00AF               	movwf	?_sprintf+1
  1491  0D94  1683               	bsf	3,5	;RP0=1, select bank1
  1492  0D95  1303               	bcf	3,6	;RP1=0, select bank1
  1493  0D96  083A               	movf	(??_main+2)^(0+128),w
  1494  0D97  1283               	bcf	3,5	;RP0=0, select bank0
  1495  0D98  1303               	bcf	3,6	;RP1=0, select bank0
  1496  0D99  00B0               	movwf	?_sprintf+2
  1497  0D9A  1683               	bsf	3,5	;RP0=1, select bank1
  1498  0D9B  1303               	bcf	3,6	;RP1=0, select bank1
  1499  0D9C  0843               	movf	_dec_POT_0^(0+128),w
  1500  0D9D  00BB               	movwf	(??_main+3)^(0+128)
  1501  0D9E  01BC               	clrf	((??_main+3)^(0+128)+1)
  1502  0D9F  083B               	movf	(??_main+3)^(0+128),w
  1503  0DA0  1283               	bcf	3,5	;RP0=0, select bank0
  1504  0DA1  1303               	bcf	3,6	;RP1=0, select bank0
  1505  0DA2  00B1               	movwf	?_sprintf+3
  1506  0DA3  1683               	bsf	3,5	;RP0=1, select bank1
  1507  0DA4  1303               	bcf	3,6	;RP1=0, select bank1
  1508  0DA5  083C               	movf	(??_main+4)^(0+128),w
  1509  0DA6  1283               	bcf	3,5	;RP0=0, select bank0
  1510  0DA7  1303               	bcf	3,6	;RP1=0, select bank0
  1511  0DA8  00B2               	movwf	?_sprintf+4
  1512  0DA9  30C7               	movlw	(low (_s| 0))& (0+255)
  1513  0DAA  120A  118A  26EB  120A  158A  	fcall	_sprintf
  1514  0DAF                     l3134:
  1515                           
  1516                           ;main2.c: 121:             Lcd_Set_Cursor(2,1);
  1517  0DAF  1283               	bcf	3,5	;RP0=0, select bank0
  1518  0DB0  1303               	bcf	3,6	;RP1=0, select bank0
  1519  0DB1  01A4               	clrf	Lcd_Set_Cursor@b
  1520  0DB2  0AA4               	incf	Lcd_Set_Cursor@b,f
  1521  0DB3  3002               	movlw	2
  1522  0DB4  160A  118A  2766  120A  158A  	fcall	_Lcd_Set_Cursor
  1523  0DB9                     l3136:
  1524                           
  1525                           ;main2.c: 122:             Lcd_Write_String(s);
  1526  0DB9  30C7               	movlw	(low (_s| 0))& (0+255)
  1527  0DBA  1283               	bcf	3,5	;RP0=0, select bank0
  1528  0DBB  1303               	bcf	3,6	;RP1=0, select bank0
  1529  0DBC  00A3               	movwf	Lcd_Write_String@a
  1530  0DBD  3000               	movlw	0
  1531  0DBE  00A4               	movwf	Lcd_Write_String@a+1
  1532  0DBF  120A  158A  2064  120A  158A  	fcall	_Lcd_Write_String
  1533                           
  1534                           ;main2.c: 123:         }
  1535  0DC4  2CAB               	goto	l3102
  1536  0DC5                     l3138:
  1537  0DC5  0878               	movf	_bandera,w
  1538  0DC6  1D03               	btfss	3,2
  1539  0DC7  2DC9               	goto	u3671
  1540  0DC8  2DCA               	goto	u3670
  1541  0DC9                     u3671:
  1542  0DC9  2CAB               	goto	l3102
  1543  0DCA                     u3670:
  1544  0DCA                     l3140:
  1545                           
  1546                           ;main2.c: 125:             Lcd_Set_Cursor(1,1);
  1547  0DCA  1283               	bcf	3,5	;RP0=0, select bank0
  1548  0DCB  1303               	bcf	3,6	;RP1=0, select bank0
  1549  0DCC  01A4               	clrf	Lcd_Set_Cursor@b
  1550  0DCD  0AA4               	incf	Lcd_Set_Cursor@b,f
  1551  0DCE  3001               	movlw	1
  1552  0DCF  160A  118A  2766  120A  158A  	fcall	_Lcd_Set_Cursor
  1553  0DD4                     l3142:
  1554                           
  1555                           ;main2.c: 126:             Lcd_Write_String("      POT2      ");
  1556  0DD4  3043               	movlw	(low ((STR_3-__stringbase)| (0+32768)))& (0+255)
  1557  0DD5  1283               	bcf	3,5	;RP0=0, select bank0
  1558  0DD6  1303               	bcf	3,6	;RP1=0, select bank0
  1559  0DD7  00A3               	movwf	Lcd_Write_String@a
  1560  0DD8  3080               	movlw	128
  1561  0DD9  00A4               	movwf	Lcd_Write_String@a+1
  1562  0DDA  120A  158A  2064  120A  158A  	fcall	_Lcd_Write_String
  1563  0DDF                     l3144:
  1564                           
  1565                           ;main2.c: 127:             Lcd_Set_Cursor(2,1);
  1566  0DDF  1283               	bcf	3,5	;RP0=0, select bank0
  1567  0DE0  1303               	bcf	3,6	;RP1=0, select bank0
  1568  0DE1  01A4               	clrf	Lcd_Set_Cursor@b
  1569  0DE2  0AA4               	incf	Lcd_Set_Cursor@b,f
  1570  0DE3  3002               	movlw	2
  1571  0DE4  160A  118A  2766  120A  158A  	fcall	_Lcd_Set_Cursor
  1572                           
  1573                           ;main2.c: 128:             sprintf(s, "      %d.%dV      ", init_POT_1, dec_POT_1);
  1574  0DE9  301E               	movlw	(low ((STR_4-__stringbase)| (0+32768)))& (0+255)
  1575  0DEA  1683               	bsf	3,5	;RP0=1, select bank1
  1576  0DEB  1303               	bcf	3,6	;RP1=0, select bank1
  1577  0DEC  00B8               	movwf	??_main^(0+128)
  1578  0DED  0838               	movf	??_main^(0+128),w
  1579  0DEE  1283               	bcf	3,5	;RP0=0, select bank0
  1580  0DEF  1303               	bcf	3,6	;RP1=0, select bank0
  1581  0DF0  00AE               	movwf	sprintf@f
  1582  0DF1  1683               	bsf	3,5	;RP0=1, select bank1
  1583  0DF2  1303               	bcf	3,6	;RP1=0, select bank1
  1584  0DF3  0842               	movf	_init_POT_1^(0+128),w
  1585  0DF4  00B9               	movwf	(??_main+1)^(0+128)
  1586  0DF5  01BA               	clrf	((??_main+1)^(0+128)+1)
  1587  0DF6  0839               	movf	(??_main+1)^(0+128),w
  1588  0DF7  1283               	bcf	3,5	;RP0=0, select bank0
  1589  0DF8  1303               	bcf	3,6	;RP1=0, select bank0
  1590  0DF9  00AF               	movwf	?_sprintf+1
  1591  0DFA  1683               	bsf	3,5	;RP0=1, select bank1
  1592  0DFB  1303               	bcf	3,6	;RP1=0, select bank1
  1593  0DFC  083A               	movf	(??_main+2)^(0+128),w
  1594  0DFD  1283               	bcf	3,5	;RP0=0, select bank0
  1595  0DFE  1303               	bcf	3,6	;RP1=0, select bank0
  1596  0DFF  00B0               	movwf	?_sprintf+2
  1597  0E00  1683               	bsf	3,5	;RP0=1, select bank1
  1598  0E01  1303               	bcf	3,6	;RP1=0, select bank1
  1599  0E02  0841               	movf	_dec_POT_1^(0+128),w
  1600  0E03  00BB               	movwf	(??_main+3)^(0+128)
  1601  0E04  01BC               	clrf	((??_main+3)^(0+128)+1)
  1602  0E05  083B               	movf	(??_main+3)^(0+128),w
  1603  0E06  1283               	bcf	3,5	;RP0=0, select bank0
  1604  0E07  1303               	bcf	3,6	;RP1=0, select bank0
  1605  0E08  00B1               	movwf	?_sprintf+3
  1606  0E09  1683               	bsf	3,5	;RP0=1, select bank1
  1607  0E0A  1303               	bcf	3,6	;RP1=0, select bank1
  1608  0E0B  083C               	movf	(??_main+4)^(0+128),w
  1609  0E0C  1283               	bcf	3,5	;RP0=0, select bank0
  1610  0E0D  1303               	bcf	3,6	;RP1=0, select bank0
  1611  0E0E  00B2               	movwf	?_sprintf+4
  1612  0E0F  30C7               	movlw	(low (_s| 0))& (0+255)
  1613  0E10  120A  118A  26EB  120A  158A  	fcall	_sprintf
  1614  0E15                     l3146:
  1615                           
  1616                           ;main2.c: 129:             Lcd_Set_Cursor(2,1);
  1617  0E15  1283               	bcf	3,5	;RP0=0, select bank0
  1618  0E16  1303               	bcf	3,6	;RP1=0, select bank0
  1619  0E17  01A4               	clrf	Lcd_Set_Cursor@b
  1620  0E18  0AA4               	incf	Lcd_Set_Cursor@b,f
  1621  0E19  3002               	movlw	2
  1622  0E1A  160A  118A  2766  120A  158A  	fcall	_Lcd_Set_Cursor
  1623  0E1F  2DB9               	goto	l3136
  1624  0E20  120A  118A  280C   	ljmp	start
  1625  0E23                     __end_of_main:
  1626                           
  1627                           	psect	text1
  1628  06EB                     __ptext1:	
  1629 ;; *************** function _sprintf *****************
  1630 ;; Defined at:
  1631 ;;		line 505 in file "C:\Program Files\Microchip\xc8\v2.35\pic\sources\c90\common\doprnt.c"
  1632 ;; Parameters:    Size  Location     Type
  1633 ;;  sp              1    wreg     PTR unsigned char 
  1634 ;;		 -> s(1), 
  1635 ;;  f               1   14[BANK0 ] PTR const unsigned char 
  1636 ;;		 -> STR_4(19), STR_2(18), 
  1637 ;; Auto vars:     Size  Location     Type
  1638 ;;  sp              1   27[BANK0 ] PTR unsigned char 
  1639 ;;		 -> s(1), 
  1640 ;;  tmpval          4    0        struct .
  1641 ;;  val             2   25[BANK0 ] unsigned int 
  1642 ;;  cp              2    0        PTR const unsigned char 
  1643 ;;  len             2    0        unsigned int 
  1644 ;;  c               1   28[BANK0 ] unsigned char 
  1645 ;;  prec            1   24[BANK0 ] char 
  1646 ;;  flag            1   23[BANK0 ] unsigned char 
  1647 ;;  ap              1   22[BANK0 ] PTR void [1]
  1648 ;;		 -> ?_sprintf(2), 
  1649 ;; Return value:  Size  Location     Type
  1650 ;;                  2   14[BANK0 ] int 
  1651 ;; Registers used:
  1652 ;;		wreg, fsr0l, fsr0h, status,2, status,0, btemp+1, pclath, cstack
  1653 ;; Tracked objects:
  1654 ;;		On entry : 0/0
  1655 ;;		On exit  : 0/0
  1656 ;;		Unchanged: 0/0
  1657 ;; Data sizes:     COMMON   BANK0   BANK1   BANK3   BANK2
  1658 ;;      Params:         0       5       0       0       0
  1659 ;;      Locals:         0       7       0       0       0
  1660 ;;      Temps:          0       3       0       0       0
  1661 ;;      Totals:         0      15       0       0       0
  1662 ;;Total ram usage:       15 bytes
  1663 ;; Hardware stack levels used: 1
  1664 ;; Hardware stack levels required when called: 3
  1665 ;; This function calls:
  1666 ;;		___lwdiv
  1667 ;;		___lwmod
  1668 ;; This function is called by:
  1669 ;;		_main
  1670 ;; This function uses a non-reentrant model
  1671 ;;
  1672                           
  1673  06EB                     _sprintf:	
  1674                           ;psect for function _sprintf
  1675                           
  1676                           
  1677                           ;incstack = 0
  1678                           ; Regs used in _sprintf: [wreg-fsr0h+status,2+status,0+btemp+1+pclath+cstack]
  1679                           ;sprintf@sp stored from wreg
  1680  06EB  1283               	bcf	3,5	;RP0=0, select bank0
  1681  06EC  1303               	bcf	3,6	;RP1=0, select bank0
  1682  06ED  00BB               	movwf	sprintf@sp
  1683  06EE                     l2702:
  1684                           
  1685                           ;C:\Program Files\Microchip\xc8\v2.35\pic\sources\c90\common\doprnt.c: 505: sprintf(char
      +                           * sp, const char * f, ...);C:\Program Files\Microchip\xc8\v2.35\pic\sources\c90\common\
      +                          doprnt.c: 506: {;C:\Program Files\Microchip\xc8\v2.35\pic\sources\c90\common\doprnt.c: 5
      +                          07:  va_list ap;;C:\Program Files\Microchip\xc8\v2.35\pic\sources\c90\common\doprnt.c: 5
      +                          12:  char c;;C:\Program Files\Microchip\xc8\v2.35\pic\sources\c90\common\doprnt.c: 521: 
      +                           signed char prec;;C:\Program Files\Microchip\xc8\v2.35\pic\sources\c90\common\doprnt.c:
      +                           525:  unsigned char flag;
  1686  06EE  302F               	movlw	(low ((?_sprintf| 0+1)))& (0+255)
  1687  06EF  00B3               	movwf	??_sprintf
  1688  06F0  0833               	movf	??_sprintf,w
  1689  06F1  00B6               	movwf	sprintf@ap
  1690                           
  1691                           ;C:\Program Files\Microchip\xc8\v2.35\pic\sources\c90\common\doprnt.c: 553:  while((c = 
      +                          *f++)) {
  1692  06F2  2FBE               	goto	l2754
  1693  06F3                     l2704:
  1694                           
  1695                           ;C:\Program Files\Microchip\xc8\v2.35\pic\sources\c90\common\doprnt.c: 555:   if(c != '%
      +                          ')
  1696  06F3  3025               	movlw	37
  1697  06F4  063C               	xorwf	sprintf@c,w
  1698  06F5  1903               	btfsc	3,2
  1699  06F6  2EF8               	goto	u3391
  1700  06F7  2EF9               	goto	u3390
  1701  06F8                     u3391:
  1702  06F8  2F05               	goto	l2710
  1703  06F9                     u3390:
  1704  06F9                     l2706:
  1705                           
  1706                           ;C:\Program Files\Microchip\xc8\v2.35\pic\sources\c90\common\doprnt.c: 557:   {;C:\Progr
      +                          am Files\Microchip\xc8\v2.35\pic\sources\c90\common\doprnt.c: 558:    ((*sp++ = (c)));
  1707  06F9  083C               	movf	sprintf@c,w
  1708  06FA  00B3               	movwf	??_sprintf
  1709  06FB  083B               	movf	sprintf@sp,w
  1710  06FC  0084               	movwf	4
  1711  06FD  0833               	movf	??_sprintf,w
  1712  06FE  1383               	bcf	3,7	;select IRP bank0
  1713  06FF  0080               	movwf	0
  1714  0700                     l2708:
  1715  0700  3001               	movlw	1
  1716  0701  00B3               	movwf	??_sprintf
  1717  0702  0833               	movf	??_sprintf,w
  1718  0703  07BB               	addwf	sprintf@sp,f
  1719                           
  1720                           ;C:\Program Files\Microchip\xc8\v2.35\pic\sources\c90\common\doprnt.c: 559:    continue;
  1721  0704  2FBE               	goto	l2754
  1722  0705                     l2710:
  1723                           
  1724                           ;C:\Program Files\Microchip\xc8\v2.35\pic\sources\c90\common\doprnt.c: 565:   flag = 0;
  1725  0705  01B7               	clrf	sprintf@flag
  1726  0706                     l2714:	
  1727                           ;C:\Program Files\Microchip\xc8\v2.35\pic\sources\c90\common\doprnt.c: 661:   switch(c =
      +                           *f++) {
  1728                           
  1729  0706  3001               	movlw	1
  1730  0707  07AE               	addwf	sprintf@f,f
  1731  0708  30FF               	movlw	-1
  1732  0709  072E               	addwf	sprintf@f,w
  1733  070A  0084               	movwf	4
  1734  070B  120A  158A  200A  120A  118A  	fcall	stringdir
  1735  0710  00BC               	movwf	sprintf@c
  1736  0711  00B3               	movwf	??_sprintf
  1737  0712  01B4               	clrf	??_sprintf+1
  1738                           
  1739                           ; Switch on 2 bytes has been partitioned into a top level switch of size 1, and 1 sub-sw
      +                          itches
  1740                           ; Switch size 1, requested type "simple"
  1741                           ; Number of cases is 1, Range of values is 0 to 0
  1742                           ; switch strategies available:
  1743                           ; Name         Instructions Cycles
  1744                           ; simple_byte            4     3 (average)
  1745                           ; direct_byte           11     8 (fixed)
  1746                           ; jumptable            260     6 (fixed)
  1747                           ;	Chosen strategy is simple_byte
  1748  0713  0834               	movf	??_sprintf+1,w
  1749  0714  3A00               	xorlw	0	; case 0
  1750  0715  1903               	skipnz
  1751  0716  2F18               	goto	l3264
  1752  0717  2FBE               	goto	l2754
  1753  0718                     l3264:
  1754                           
  1755                           ; Switch size 1, requested type "simple"
  1756                           ; Number of cases is 3, Range of values is 0 to 105
  1757                           ; switch strategies available:
  1758                           ; Name         Instructions Cycles
  1759                           ; simple_byte           10     6 (average)
  1760                           ; jumptable            260     6 (fixed)
  1761                           ;	Chosen strategy is simple_byte
  1762  0718  0833               	movf	??_sprintf,w
  1763  0719  3A00               	xorlw	0	; case 0
  1764  071A  1903               	skipnz
  1765  071B  2FD0               	goto	l2756
  1766  071C  3A64               	xorlw	100	; case 100
  1767  071D  1903               	skipnz
  1768  071E  2F23               	goto	l2716
  1769  071F  3A0D               	xorlw	13	; case 105
  1770  0720  1903               	skipnz
  1771  0721  2F23               	goto	l2716
  1772  0722  2FBE               	goto	l2754
  1773  0723                     l2716:
  1774                           
  1775                           ;C:\Program Files\Microchip\xc8\v2.35\pic\sources\c90\common\doprnt.c: 1279:   {;C:\Prog
      +                          ram Files\Microchip\xc8\v2.35\pic\sources\c90\common\doprnt.c: 1285:     val = (unsigned
      +                           int)(*(int *)__va_arg((*(int **)ap), (int)0));
  1776  0723  0836               	movf	sprintf@ap,w
  1777  0724  0084               	movwf	4
  1778  0725  1383               	bcf	3,7	;select IRP bank0
  1779  0726  0800               	movf	0,w
  1780  0727  00B9               	movwf	sprintf@val
  1781  0728  0A84               	incf	4,f
  1782  0729  0800               	movf	0,w
  1783  072A  00BA               	movwf	sprintf@val+1
  1784  072B                     l2718:
  1785  072B  3002               	movlw	2
  1786  072C  00B3               	movwf	??_sprintf
  1787  072D  0833               	movf	??_sprintf,w
  1788  072E  07B6               	addwf	sprintf@ap,f
  1789  072F                     l2720:
  1790                           
  1791                           ;C:\Program Files\Microchip\xc8\v2.35\pic\sources\c90\common\doprnt.c: 1287:    if((int)
      +                          val < 0) {
  1792  072F  1FBA               	btfss	sprintf@val+1,7
  1793  0730  2F32               	goto	u3401
  1794  0731  2F33               	goto	u3400
  1795  0732                     u3401:
  1796  0732  2F3C               	goto	l2726
  1797  0733                     u3400:
  1798  0733                     l2722:
  1799                           
  1800                           ;C:\Program Files\Microchip\xc8\v2.35\pic\sources\c90\common\doprnt.c: 1288:     flag |=
      +                           0x03;
  1801  0733  3003               	movlw	3
  1802  0734  00B3               	movwf	??_sprintf
  1803  0735  0833               	movf	??_sprintf,w
  1804  0736  04B7               	iorwf	sprintf@flag,f
  1805  0737                     l2724:
  1806                           
  1807                           ;C:\Program Files\Microchip\xc8\v2.35\pic\sources\c90\common\doprnt.c: 1289:     val = -
      +                          val;
  1808  0737  09B9               	comf	sprintf@val,f
  1809  0738  09BA               	comf	sprintf@val+1,f
  1810  0739  0AB9               	incf	sprintf@val,f
  1811  073A  1903               	skipnz
  1812  073B  0ABA               	incf	sprintf@val+1,f
  1813  073C                     l2726:
  1814                           
  1815                           ;C:\Program Files\Microchip\xc8\v2.35\pic\sources\c90\common\doprnt.c: 1292:   };C:\Prog
      +                          ram Files\Microchip\xc8\v2.35\pic\sources\c90\common\doprnt.c: 1331:    for(c = 1 ; c !=
      +                           sizeof dpowers/sizeof dpowers[0] ; c++)
  1816  073C  01BC               	clrf	sprintf@c
  1817  073D  0ABC               	incf	sprintf@c,f
  1818  073E                     l2732:
  1819                           
  1820                           ;C:\Program Files\Microchip\xc8\v2.35\pic\sources\c90\common\doprnt.c: 1332:     if(val 
      +                          < dpowers[c])
  1821  073E  083C               	movf	sprintf@c,w
  1822  073F  00B3               	movwf	??_sprintf
  1823  0740  0733               	addwf	??_sprintf,w
  1824  0741  3E01               	addlw	low ((_dpowers-__stringbase)| (0+32768))
  1825  0742  0084               	movwf	4
  1826  0743  120A  158A  200A  120A  118A  	fcall	stringdir
  1827  0748  00B4               	movwf	??_sprintf+1
  1828  0749  120A  158A  200A  120A  118A  	fcall	stringdir
  1829  074E  00B5               	movwf	??_sprintf+2
  1830  074F  0835               	movf	??_sprintf+2,w
  1831  0750  023A               	subwf	sprintf@val+1,w
  1832  0751  1D03               	skipz
  1833  0752  2F55               	goto	u3415
  1834  0753  0834               	movf	??_sprintf+1,w
  1835  0754  0239               	subwf	sprintf@val,w
  1836  0755                     u3415:
  1837  0755  1803               	skipnc
  1838  0756  2F58               	goto	u3411
  1839  0757  2F59               	goto	u3410
  1840  0758                     u3411:
  1841  0758  2F5A               	goto	l2736
  1842  0759                     u3410:
  1843  0759  2F64               	goto	l2738
  1844  075A                     l2736:
  1845  075A  3001               	movlw	1
  1846  075B  00B3               	movwf	??_sprintf
  1847  075C  0833               	movf	??_sprintf,w
  1848  075D  07BC               	addwf	sprintf@c,f
  1849  075E  3005               	movlw	5
  1850  075F  063C               	xorwf	sprintf@c,w
  1851  0760  1D03               	btfss	3,2
  1852  0761  2F63               	goto	u3421
  1853  0762  2F64               	goto	u3420
  1854  0763                     u3421:
  1855  0763  2F3E               	goto	l2732
  1856  0764                     u3420:
  1857  0764                     l2738:
  1858                           
  1859                           ;C:\Program Files\Microchip\xc8\v2.35\pic\sources\c90\common\doprnt.c: 1448:   {;C:\Prog
      +                          ram Files\Microchip\xc8\v2.35\pic\sources\c90\common\doprnt.c: 1464:    if(flag & 0x03)
  1860  0764  0837               	movf	sprintf@flag,w
  1861  0765  3903               	andlw	3
  1862  0766  1903               	btfsc	3,2
  1863  0767  2F69               	goto	u3431
  1864  0768  2F6A               	goto	u3430
  1865  0769                     u3431:
  1866  0769  2F75               	goto	l2744
  1867  076A                     u3430:
  1868  076A                     l2740:
  1869                           
  1870                           ;C:\Program Files\Microchip\xc8\v2.35\pic\sources\c90\common\doprnt.c: 1465:     ((*sp++
      +                           = ('-')));
  1871  076A  302D               	movlw	45
  1872  076B  00B3               	movwf	??_sprintf
  1873  076C  083B               	movf	sprintf@sp,w
  1874  076D  0084               	movwf	4
  1875  076E  0833               	movf	??_sprintf,w
  1876  076F  1383               	bcf	3,7	;select IRP bank0
  1877  0770  0080               	movwf	0
  1878  0771                     l2742:
  1879  0771  3001               	movlw	1
  1880  0772  00B3               	movwf	??_sprintf
  1881  0773  0833               	movf	??_sprintf,w
  1882  0774  07BB               	addwf	sprintf@sp,f
  1883  0775                     l2744:
  1884                           
  1885                           ;C:\Program Files\Microchip\xc8\v2.35\pic\sources\c90\common\doprnt.c: 1495:   };C:\Prog
      +                          ram Files\Microchip\xc8\v2.35\pic\sources\c90\common\doprnt.c: 1498:   prec = c;
  1886  0775  083C               	movf	sprintf@c,w
  1887  0776  00B3               	movwf	??_sprintf
  1888  0777  0833               	movf	??_sprintf,w
  1889  0778  00B8               	movwf	sprintf@prec
  1890                           
  1891                           ;C:\Program Files\Microchip\xc8\v2.35\pic\sources\c90\common\doprnt.c: 1500:   while(pre
      +                          c--) {
  1892  0779  2FB5               	goto	l2752
  1893  077A                     l2746:
  1894                           
  1895                           ;C:\Program Files\Microchip\xc8\v2.35\pic\sources\c90\common\doprnt.c: 1504:    {;C:\Pro
      +                          gram Files\Microchip\xc8\v2.35\pic\sources\c90\common\doprnt.c: 1515:     c = (val / dpo
      +                          wers[(unsigned char)prec]) % 10 + '0';
  1896  077A  300A               	movlw	10
  1897  077B  00A8               	movwf	___lwmod@divisor
  1898  077C  3000               	movlw	0
  1899  077D  00A9               	movwf	___lwmod@divisor+1
  1900  077E  0838               	movf	sprintf@prec,w
  1901  077F  00B3               	movwf	??_sprintf
  1902  0780  0733               	addwf	??_sprintf,w
  1903  0781  3E01               	addlw	low ((_dpowers-__stringbase)| (0+32768))
  1904  0782  0084               	movwf	4
  1905  0783  120A  158A  200A  120A  118A  	fcall	stringdir
  1906  0788  00A0               	movwf	___lwdiv@divisor
  1907  0789  120A  158A  200A  120A  118A  	fcall	stringdir
  1908  078E  00A1               	movwf	___lwdiv@divisor+1
  1909  078F  083A               	movf	sprintf@val+1,w
  1910  0790  00A3               	movwf	___lwdiv@dividend+1
  1911  0791  0839               	movf	sprintf@val,w
  1912  0792  00A2               	movwf	___lwdiv@dividend
  1913  0793  120A  158A  20AA  120A  118A  	fcall	___lwdiv
  1914  0798  1283               	bcf	3,5	;RP0=0, select bank0
  1915  0799  1303               	bcf	3,6	;RP1=0, select bank0
  1916  079A  0821               	movf	?___lwdiv+1,w
  1917  079B  00AB               	movwf	___lwmod@dividend+1
  1918  079C  0820               	movf	?___lwdiv,w
  1919  079D  00AA               	movwf	___lwmod@dividend
  1920  079E  160A  118A  27C4  120A  118A  	fcall	___lwmod
  1921  07A3  1283               	bcf	3,5	;RP0=0, select bank0
  1922  07A4  1303               	bcf	3,6	;RP1=0, select bank0
  1923  07A5  0828               	movf	?___lwmod,w
  1924  07A6  3E30               	addlw	48
  1925  07A7  00B4               	movwf	??_sprintf+1
  1926  07A8  0834               	movf	??_sprintf+1,w
  1927  07A9  00BC               	movwf	sprintf@c
  1928  07AA                     l2748:
  1929                           
  1930                           ;C:\Program Files\Microchip\xc8\v2.35\pic\sources\c90\common\doprnt.c: 1549:    };C:\Pro
      +                          gram Files\Microchip\xc8\v2.35\pic\sources\c90\common\doprnt.c: 1550:    ((*sp++ = (c)))
      +                          ;
  1931  07AA  083C               	movf	sprintf@c,w
  1932  07AB  00B3               	movwf	??_sprintf
  1933  07AC  083B               	movf	sprintf@sp,w
  1934  07AD  0084               	movwf	4
  1935  07AE  0833               	movf	??_sprintf,w
  1936  07AF  1383               	bcf	3,7	;select IRP bank0
  1937  07B0  0080               	movwf	0
  1938  07B1                     l2750:
  1939  07B1  3001               	movlw	1
  1940  07B2  00B3               	movwf	??_sprintf
  1941  07B3  0833               	movf	??_sprintf,w
  1942  07B4  07BB               	addwf	sprintf@sp,f
  1943  07B5                     l2752:
  1944                           
  1945                           ;C:\Program Files\Microchip\xc8\v2.35\pic\sources\c90\common\doprnt.c: 1500:   while(pre
      +                          c--) {
  1946  07B5  30FF               	movlw	255
  1947  07B6  00B3               	movwf	??_sprintf
  1948  07B7  0833               	movf	??_sprintf,w
  1949  07B8  07B8               	addwf	sprintf@prec,f
  1950  07B9  0A38               	incf	sprintf@prec,w
  1951  07BA  1D03               	btfss	3,2
  1952  07BB  2FBD               	goto	u3441
  1953  07BC  2FBE               	goto	u3440
  1954  07BD                     u3441:
  1955  07BD  2F7A               	goto	l2746
  1956  07BE                     u3440:
  1957  07BE                     l2754:
  1958                           
  1959                           ;C:\Program Files\Microchip\xc8\v2.35\pic\sources\c90\common\doprnt.c: 553:  while((c = 
      +                          *f++)) {
  1960  07BE  3001               	movlw	1
  1961  07BF  07AE               	addwf	sprintf@f,f
  1962  07C0  30FF               	movlw	-1
  1963  07C1  072E               	addwf	sprintf@f,w
  1964  07C2  0084               	movwf	4
  1965  07C3  120A  158A  200A  120A  118A  	fcall	stringdir
  1966  07C8  00B3               	movwf	??_sprintf
  1967  07C9  0833               	movf	??_sprintf,w
  1968  07CA  00BC               	movwf	sprintf@c
  1969  07CB  083C               	movf	sprintf@c,w
  1970  07CC  1D03               	btfss	3,2
  1971  07CD  2FCF               	goto	u3451
  1972  07CE  2FD0               	goto	u3450
  1973  07CF                     u3451:
  1974  07CF  2EF3               	goto	l2704
  1975  07D0                     u3450:
  1976  07D0                     l2756:
  1977                           
  1978                           ;C:\Program Files\Microchip\xc8\v2.35\pic\sources\c90\common\doprnt.c: 1564:  *sp = 0;
  1979  07D0  083B               	movf	sprintf@sp,w
  1980  07D1  0084               	movwf	4
  1981  07D2  1383               	bcf	3,7	;select IRP bank0
  1982  07D3  0180               	clrf	0
  1983  07D4                     l320:
  1984  07D4  0008               	return
  1985  07D5                     __end_of_sprintf:
  1986                           
  1987                           	psect	text2
  1988  17C4                     __ptext2:	
  1989 ;; *************** function ___lwmod *****************
  1990 ;; Defined at:
  1991 ;;		line 5 in file "C:\Program Files\Microchip\xc8\v2.35\pic\sources\c90\common\lwmod.c"
  1992 ;; Parameters:    Size  Location     Type
  1993 ;;  divisor         2    8[BANK0 ] unsigned int 
  1994 ;;  dividend        2   10[BANK0 ] unsigned int 
  1995 ;; Auto vars:     Size  Location     Type
  1996 ;;  counter         1   13[BANK0 ] unsigned char 
  1997 ;; Return value:  Size  Location     Type
  1998 ;;                  2    8[BANK0 ] unsigned int 
  1999 ;; Registers used:
  2000 ;;		wreg, status,2, status,0
  2001 ;; Tracked objects:
  2002 ;;		On entry : 0/0
  2003 ;;		On exit  : 0/0
  2004 ;;		Unchanged: 0/0
  2005 ;; Data sizes:     COMMON   BANK0   BANK1   BANK3   BANK2
  2006 ;;      Params:         0       4       0       0       0
  2007 ;;      Locals:         0       1       0       0       0
  2008 ;;      Temps:          0       1       0       0       0
  2009 ;;      Totals:         0       6       0       0       0
  2010 ;;Total ram usage:        6 bytes
  2011 ;; Hardware stack levels used: 1
  2012 ;; Hardware stack levels required when called: 2
  2013 ;; This function calls:
  2014 ;;		Nothing
  2015 ;; This function is called by:
  2016 ;;		_sprintf
  2017 ;; This function uses a non-reentrant model
  2018 ;;
  2019                           
  2020  17C4                     ___lwmod:	
  2021                           ;psect for function ___lwmod
  2022                           
  2023  17C4                     l2086:	
  2024                           ;incstack = 0
  2025                           ; Regs used in ___lwmod: [wreg+status,2+status,0]
  2026                           
  2027  17C4  1283               	bcf	3,5	;RP0=0, select bank0
  2028  17C5  1303               	bcf	3,6	;RP1=0, select bank0
  2029  17C6  0828               	movf	___lwmod@divisor,w
  2030  17C7  0429               	iorwf	___lwmod@divisor+1,w
  2031  17C8  1903               	btfsc	3,2
  2032  17C9  2FCB               	goto	u2001
  2033  17CA  2FCC               	goto	u2000
  2034  17CB                     u2001:
  2035  17CB  2FFB               	goto	l2104
  2036  17CC                     u2000:
  2037  17CC                     l2088:
  2038  17CC  01AD               	clrf	___lwmod@counter
  2039  17CD  0AAD               	incf	___lwmod@counter,f
  2040  17CE  2FDA               	goto	l2094
  2041  17CF                     l2090:
  2042  17CF  3001               	movlw	1
  2043  17D0                     u2015:
  2044  17D0  1003               	clrc
  2045  17D1  0DA8               	rlf	___lwmod@divisor,f
  2046  17D2  0DA9               	rlf	___lwmod@divisor+1,f
  2047  17D3  3EFF               	addlw	-1
  2048  17D4  1D03               	skipz
  2049  17D5  2FD0               	goto	u2015
  2050  17D6                     l2092:
  2051  17D6  3001               	movlw	1
  2052  17D7  00AC               	movwf	??___lwmod
  2053  17D8  082C               	movf	??___lwmod,w
  2054  17D9  07AD               	addwf	___lwmod@counter,f
  2055  17DA                     l2094:
  2056  17DA  1FA9               	btfss	___lwmod@divisor+1,7
  2057  17DB  2FDD               	goto	u2021
  2058  17DC  2FDE               	goto	u2020
  2059  17DD                     u2021:
  2060  17DD  2FCF               	goto	l2090
  2061  17DE                     u2020:
  2062  17DE                     l2096:
  2063  17DE  0829               	movf	___lwmod@divisor+1,w
  2064  17DF  022B               	subwf	___lwmod@dividend+1,w
  2065  17E0  1D03               	skipz
  2066  17E1  2FE4               	goto	u2035
  2067  17E2  0828               	movf	___lwmod@divisor,w
  2068  17E3  022A               	subwf	___lwmod@dividend,w
  2069  17E4                     u2035:
  2070  17E4  1C03               	skipc
  2071  17E5  2FE7               	goto	u2031
  2072  17E6  2FE8               	goto	u2030
  2073  17E7                     u2031:
  2074  17E7  2FEE               	goto	l2100
  2075  17E8                     u2030:
  2076  17E8                     l2098:
  2077  17E8  0828               	movf	___lwmod@divisor,w
  2078  17E9  02AA               	subwf	___lwmod@dividend,f
  2079  17EA  0829               	movf	___lwmod@divisor+1,w
  2080  17EB  1C03               	skipc
  2081  17EC  03AB               	decf	___lwmod@dividend+1,f
  2082  17ED  02AB               	subwf	___lwmod@dividend+1,f
  2083  17EE                     l2100:
  2084  17EE  3001               	movlw	1
  2085  17EF                     u2045:
  2086  17EF  1003               	clrc
  2087  17F0  0CA9               	rrf	___lwmod@divisor+1,f
  2088  17F1  0CA8               	rrf	___lwmod@divisor,f
  2089  17F2  3EFF               	addlw	-1
  2090  17F3  1D03               	skipz
  2091  17F4  2FEF               	goto	u2045
  2092  17F5                     l2102:
  2093  17F5  3001               	movlw	1
  2094  17F6  02AD               	subwf	___lwmod@counter,f
  2095  17F7  1D03               	btfss	3,2
  2096  17F8  2FFA               	goto	u2051
  2097  17F9  2FFB               	goto	u2050
  2098  17FA                     u2051:
  2099  17FA  2FDE               	goto	l2096
  2100  17FB                     u2050:
  2101  17FB                     l2104:
  2102  17FB  082B               	movf	___lwmod@dividend+1,w
  2103  17FC  00A9               	movwf	?___lwmod+1
  2104  17FD  082A               	movf	___lwmod@dividend,w
  2105  17FE  00A8               	movwf	?___lwmod
  2106  17FF                     l606:
  2107  17FF  0008               	return
  2108  1800                     __end_of___lwmod:
  2109                           
  2110                           	psect	text3
  2111  08AA                     __ptext3:	
  2112 ;; *************** function ___lwdiv *****************
  2113 ;; Defined at:
  2114 ;;		line 5 in file "C:\Program Files\Microchip\xc8\v2.35\pic\sources\c90\common\lwdiv.c"
  2115 ;; Parameters:    Size  Location     Type
  2116 ;;  divisor         2    0[BANK0 ] unsigned int 
  2117 ;;  dividend        2    2[BANK0 ] unsigned int 
  2118 ;; Auto vars:     Size  Location     Type
  2119 ;;  quotient        2    5[BANK0 ] unsigned int 
  2120 ;;  counter         1    7[BANK0 ] unsigned char 
  2121 ;; Return value:  Size  Location     Type
  2122 ;;                  2    0[BANK0 ] unsigned int 
  2123 ;; Registers used:
  2124 ;;		wreg, status,2, status,0
  2125 ;; Tracked objects:
  2126 ;;		On entry : 0/0
  2127 ;;		On exit  : 0/0
  2128 ;;		Unchanged: 0/0
  2129 ;; Data sizes:     COMMON   BANK0   BANK1   BANK3   BANK2
  2130 ;;      Params:         0       4       0       0       0
  2131 ;;      Locals:         0       3       0       0       0
  2132 ;;      Temps:          0       1       0       0       0
  2133 ;;      Totals:         0       8       0       0       0
  2134 ;;Total ram usage:        8 bytes
  2135 ;; Hardware stack levels used: 1
  2136 ;; Hardware stack levels required when called: 2
  2137 ;; This function calls:
  2138 ;;		Nothing
  2139 ;; This function is called by:
  2140 ;;		_main
  2141 ;;		_sprintf
  2142 ;; This function uses a non-reentrant model
  2143 ;;
  2144                           
  2145  08AA                     ___lwdiv:	
  2146                           ;psect for function ___lwdiv
  2147                           
  2148  08AA                     l2060:	
  2149                           ;incstack = 0
  2150                           ; Regs used in ___lwdiv: [wreg+status,2+status,0]
  2151                           
  2152  08AA  1283               	bcf	3,5	;RP0=0, select bank0
  2153  08AB  1303               	bcf	3,6	;RP1=0, select bank0
  2154  08AC  01A5               	clrf	___lwdiv@quotient
  2155  08AD  01A6               	clrf	___lwdiv@quotient+1
  2156  08AE                     l2062:
  2157  08AE  0820               	movf	___lwdiv@divisor,w
  2158  08AF  0421               	iorwf	___lwdiv@divisor+1,w
  2159  08B0  1903               	btfsc	3,2
  2160  08B1  28B3               	goto	u1931
  2161  08B2  28B4               	goto	u1930
  2162  08B3                     u1931:
  2163  08B3  28EB               	goto	l2082
  2164  08B4                     u1930:
  2165  08B4                     l2064:
  2166  08B4  01A7               	clrf	___lwdiv@counter
  2167  08B5  0AA7               	incf	___lwdiv@counter,f
  2168  08B6  28C2               	goto	l2070
  2169  08B7                     l2066:
  2170  08B7  3001               	movlw	1
  2171  08B8                     u1945:
  2172  08B8  1003               	clrc
  2173  08B9  0DA0               	rlf	___lwdiv@divisor,f
  2174  08BA  0DA1               	rlf	___lwdiv@divisor+1,f
  2175  08BB  3EFF               	addlw	-1
  2176  08BC  1D03               	skipz
  2177  08BD  28B8               	goto	u1945
  2178  08BE                     l2068:
  2179  08BE  3001               	movlw	1
  2180  08BF  00A4               	movwf	??___lwdiv
  2181  08C0  0824               	movf	??___lwdiv,w
  2182  08C1  07A7               	addwf	___lwdiv@counter,f
  2183  08C2                     l2070:
  2184  08C2  1FA1               	btfss	___lwdiv@divisor+1,7
  2185  08C3  28C5               	goto	u1951
  2186  08C4  28C6               	goto	u1950
  2187  08C5                     u1951:
  2188  08C5  28B7               	goto	l2066
  2189  08C6                     u1950:
  2190  08C6                     l2072:
  2191  08C6  3001               	movlw	1
  2192  08C7                     u1965:
  2193  08C7  1003               	clrc
  2194  08C8  0DA5               	rlf	___lwdiv@quotient,f
  2195  08C9  0DA6               	rlf	___lwdiv@quotient+1,f
  2196  08CA  3EFF               	addlw	-1
  2197  08CB  1D03               	skipz
  2198  08CC  28C7               	goto	u1965
  2199  08CD  0821               	movf	___lwdiv@divisor+1,w
  2200  08CE  0223               	subwf	___lwdiv@dividend+1,w
  2201  08CF  1D03               	skipz
  2202  08D0  28D3               	goto	u1975
  2203  08D1  0820               	movf	___lwdiv@divisor,w
  2204  08D2  0222               	subwf	___lwdiv@dividend,w
  2205  08D3                     u1975:
  2206  08D3  1C03               	skipc
  2207  08D4  28D6               	goto	u1971
  2208  08D5  28D7               	goto	u1970
  2209  08D6                     u1971:
  2210  08D6  28DE               	goto	l2078
  2211  08D7                     u1970:
  2212  08D7                     l2074:
  2213  08D7  0820               	movf	___lwdiv@divisor,w
  2214  08D8  02A2               	subwf	___lwdiv@dividend,f
  2215  08D9  0821               	movf	___lwdiv@divisor+1,w
  2216  08DA  1C03               	skipc
  2217  08DB  03A3               	decf	___lwdiv@dividend+1,f
  2218  08DC  02A3               	subwf	___lwdiv@dividend+1,f
  2219  08DD                     l2076:
  2220  08DD  1425               	bsf	___lwdiv@quotient,0
  2221  08DE                     l2078:
  2222  08DE  3001               	movlw	1
  2223  08DF                     u1985:
  2224  08DF  1003               	clrc
  2225  08E0  0CA1               	rrf	___lwdiv@divisor+1,f
  2226  08E1  0CA0               	rrf	___lwdiv@divisor,f
  2227  08E2  3EFF               	addlw	-1
  2228  08E3  1D03               	skipz
  2229  08E4  28DF               	goto	u1985
  2230  08E5                     l2080:
  2231  08E5  3001               	movlw	1
  2232  08E6  02A7               	subwf	___lwdiv@counter,f
  2233  08E7  1D03               	btfss	3,2
  2234  08E8  28EA               	goto	u1991
  2235  08E9  28EB               	goto	u1990
  2236  08EA                     u1991:
  2237  08EA  28C6               	goto	l2072
  2238  08EB                     u1990:
  2239  08EB                     l2082:
  2240  08EB  0826               	movf	___lwdiv@quotient+1,w
  2241  08EC  00A1               	movwf	?___lwdiv+1
  2242  08ED  0825               	movf	___lwdiv@quotient,w
  2243  08EE  00A0               	movwf	?___lwdiv
  2244  08EF                     l596:
  2245  08EF  0008               	return
  2246  08F0                     __end_of___lwdiv:
  2247                           
  2248                           	psect	text4
  2249  178C                     __ptext4:	
  2250 ;; *************** function _setup *****************
  2251 ;; Defined at:
  2252 ;;		line 140 in file "main2.c"
  2253 ;; Parameters:    Size  Location     Type
  2254 ;;		None
  2255 ;; Auto vars:     Size  Location     Type
  2256 ;;		None
  2257 ;; Return value:  Size  Location     Type
  2258 ;;                  1    wreg      void 
  2259 ;; Registers used:
  2260 ;;		wreg, fsr0l, fsr0h, status,2, status,0, pclath, cstack
  2261 ;; Tracked objects:
  2262 ;;		On entry : 0/0
  2263 ;;		On exit  : 0/0
  2264 ;;		Unchanged: 0/0
  2265 ;; Data sizes:     COMMON   BANK0   BANK1   BANK3   BANK2
  2266 ;;      Params:         0       0       0       0       0
  2267 ;;      Locals:         0       0       0       0       0
  2268 ;;      Temps:          0       0       0       0       0
  2269 ;;      Totals:         0       0       0       0       0
  2270 ;;Total ram usage:        0 bytes
  2271 ;; Hardware stack levels used: 1
  2272 ;; Hardware stack levels required when called: 3
  2273 ;; This function calls:
  2274 ;;		_adc_init
  2275 ;;		_init_osc_MHz
  2276 ;;		_tmr0_init
  2277 ;;		_tmr0_reload
  2278 ;; This function is called by:
  2279 ;;		_main
  2280 ;; This function uses a non-reentrant model
  2281 ;;
  2282                           
  2283  178C                     _setup:	
  2284                           ;psect for function _setup
  2285                           
  2286  178C                     l3038:	
  2287                           ;incstack = 0
  2288                           ; Regs used in _setup: [wreg-fsr0h+status,2+status,0+pclath+cstack]
  2289                           
  2290                           
  2291                           ;main2.c: 141:     TRISD = 0X00;
  2292  178C  1683               	bsf	3,5	;RP0=1, select bank1
  2293  178D  1303               	bcf	3,6	;RP1=0, select bank1
  2294  178E  0188               	clrf	8	;volatile
  2295                           
  2296                           ;main2.c: 142:     TRISC = 0X00;
  2297  178F  0187               	clrf	7	;volatile
  2298                           
  2299                           ;main2.c: 143:     ANSELH = 0;
  2300  1790  1683               	bsf	3,5	;RP0=1, select bank3
  2301  1791  1703               	bsf	3,6	;RP1=1, select bank3
  2302  1792  0189               	clrf	9	;volatile
  2303                           
  2304                           ;main2.c: 144:     TRISB = 0;
  2305  1793  1683               	bsf	3,5	;RP0=1, select bank1
  2306  1794  1303               	bcf	3,6	;RP1=0, select bank1
  2307  1795  0186               	clrf	6	;volatile
  2308                           
  2309                           ;main2.c: 145:     PORTB = 0;
  2310  1796  1283               	bcf	3,5	;RP0=0, select bank0
  2311  1797  1303               	bcf	3,6	;RP1=0, select bank0
  2312  1798  0186               	clrf	6	;volatile
  2313  1799                     l3040:
  2314                           
  2315                           ;main2.c: 146:     init_osc_MHz(3);
  2316  1799  3003               	movlw	3
  2317  179A  120A  158A  20F0  160A  118A  	fcall	_init_osc_MHz
  2318  179F                     l3042:
  2319                           
  2320                           ;main2.c: 147:     adc_init(1,0,0);
  2321  179F  1283               	bcf	3,5	;RP0=0, select bank0
  2322  17A0  1303               	bcf	3,6	;RP1=0, select bank0
  2323  17A1  01A0               	clrf	adc_init@vref_plus
  2324  17A2  01A1               	clrf	adc_init@vref_minus
  2325  17A3  3001               	movlw	1
  2326  17A4  120A  158A  2187  160A  118A  	fcall	_adc_init
  2327  17A9                     l3044:
  2328                           
  2329                           ;main2.c: 148:     PIR1bits.ADIF = 0;
  2330  17A9  1283               	bcf	3,5	;RP0=0, select bank0
  2331  17AA  1303               	bcf	3,6	;RP1=0, select bank0
  2332  17AB  130C               	bcf	12,6	;volatile
  2333  17AC                     l3046:
  2334                           
  2335                           ;main2.c: 149:     PIE1bits.ADIE = 1;
  2336  17AC  1683               	bsf	3,5	;RP0=1, select bank1
  2337  17AD  1303               	bcf	3,6	;RP1=0, select bank1
  2338  17AE  170C               	bsf	12,6	;volatile
  2339  17AF                     l3048:
  2340                           
  2341                           ;main2.c: 150:     INTCONbits.PEIE = 1;
  2342  17AF  170B               	bsf	11,6	;volatile
  2343  17B0                     l3050:
  2344                           
  2345                           ;main2.c: 151:     INTCONbits.GIE = 1;
  2346  17B0  178B               	bsf	11,7	;volatile
  2347  17B1                     l3052:
  2348                           
  2349                           ;main2.c: 152:     PIE1bits.RCIE = 1;
  2350  17B1  168C               	bsf	12,5	;volatile
  2351  17B2                     l3054:
  2352                           
  2353                           ;main2.c: 153:     INTCONbits.T0IE = 1;
  2354  17B2  168B               	bsf	11,5	;volatile
  2355  17B3                     l3056:
  2356                           
  2357                           ;main2.c: 154:     tmr0_reload();
  2358  17B3  160A  118A  26DF  160A  118A  	fcall	_tmr0_reload
  2359  17B8                     l3058:
  2360                           
  2361                           ;main2.c: 155:     tmr0_init(256);
  2362  17B8  3000               	movlw	0
  2363  17B9  1283               	bcf	3,5	;RP0=0, select bank0
  2364  17BA  1303               	bcf	3,6	;RP1=0, select bank0
  2365  17BB  00A0               	movwf	tmr0_init@prescaler
  2366  17BC  3001               	movlw	1
  2367  17BD  00A1               	movwf	tmr0_init@prescaler+1
  2368  17BE  120A  158A  2224  160A  118A  	fcall	_tmr0_init
  2369  17C3                     l99:
  2370  17C3  0008               	return
  2371  17C4                     __end_of_setup:
  2372                           
  2373                           	psect	text5
  2374  16DF                     __ptext5:	
  2375 ;; *************** function _tmr0_reload *****************
  2376 ;; Defined at:
  2377 ;;		line 40 in file "tmr0_2.c"
  2378 ;; Parameters:    Size  Location     Type
  2379 ;;		None
  2380 ;; Auto vars:     Size  Location     Type
  2381 ;;		None
  2382 ;; Return value:  Size  Location     Type
  2383 ;;                  1    wreg      void 
  2384 ;; Registers used:
  2385 ;;		wreg
  2386 ;; Tracked objects:
  2387 ;;		On entry : 0/0
  2388 ;;		On exit  : 0/0
  2389 ;;		Unchanged: 0/0
  2390 ;; Data sizes:     COMMON   BANK0   BANK1   BANK3   BANK2
  2391 ;;      Params:         0       0       0       0       0
  2392 ;;      Locals:         0       0       0       0       0
  2393 ;;      Temps:          0       0       0       0       0
  2394 ;;      Totals:         0       0       0       0       0
  2395 ;;Total ram usage:        0 bytes
  2396 ;; Hardware stack levels used: 1
  2397 ;; Hardware stack levels required when called: 2
  2398 ;; This function calls:
  2399 ;;		Nothing
  2400 ;; This function is called by:
  2401 ;;		_setup
  2402 ;; This function uses a non-reentrant model
  2403 ;;
  2404                           
  2405  16DF                     _tmr0_reload:	
  2406                           ;psect for function _tmr0_reload
  2407                           
  2408  16DF                     l2980:	
  2409                           ;incstack = 0
  2410                           ; Regs used in _tmr0_reload: [wreg]
  2411                           
  2412                           
  2413                           ;tmr0_2.c: 41:     TMR0 = 61;
  2414  16DF  303D               	movlw	61
  2415  16E0  1283               	bcf	3,5	;RP0=0, select bank0
  2416  16E1  1303               	bcf	3,6	;RP1=0, select bank0
  2417  16E2  0081               	movwf	1	;volatile
  2418  16E3                     l2982:
  2419                           
  2420                           ;tmr0_2.c: 42:     INTCONbits.T0IF = 0;
  2421  16E3  110B               	bcf	11,2	;volatile
  2422  16E4                     l210:
  2423  16E4  0008               	return
  2424  16E5                     __end_of_tmr0_reload:
  2425                           
  2426                           	psect	text6
  2427  0A24                     __ptext6:	
  2428 ;; *************** function _tmr0_init *****************
  2429 ;; Defined at:
  2430 ;;		line 6 in file "tmr0_2.c"
  2431 ;; Parameters:    Size  Location     Type
  2432 ;;  prescaler       2    0[BANK0 ] unsigned int 
  2433 ;; Auto vars:     Size  Location     Type
  2434 ;;		None
  2435 ;; Return value:  Size  Location     Type
  2436 ;;                  1    wreg      void 
  2437 ;; Registers used:
  2438 ;;		wreg, fsr0l, fsr0h, status,2, status,0
  2439 ;; Tracked objects:
  2440 ;;		On entry : 0/0
  2441 ;;		On exit  : 0/0
  2442 ;;		Unchanged: 0/0
  2443 ;; Data sizes:     COMMON   BANK0   BANK1   BANK3   BANK2
  2444 ;;      Params:         0       2       0       0       0
  2445 ;;      Locals:         0       0       0       0       0
  2446 ;;      Temps:          0       0       0       0       0
  2447 ;;      Totals:         0       2       0       0       0
  2448 ;;Total ram usage:        2 bytes
  2449 ;; Hardware stack levels used: 1
  2450 ;; Hardware stack levels required when called: 2
  2451 ;; This function calls:
  2452 ;;		Nothing
  2453 ;; This function is called by:
  2454 ;;		_setup
  2455 ;; This function uses a non-reentrant model
  2456 ;;
  2457                           
  2458  0A24                     _tmr0_init:	
  2459                           ;psect for function _tmr0_init
  2460                           
  2461  0A24                     l2984:	
  2462                           ;incstack = 0
  2463                           ; Regs used in _tmr0_init: [wreg-fsr0h+status,2+status,0]
  2464                           
  2465                           
  2466                           ;tmr0_2.c: 7:     OPTION_REGbits.T0CS = 0;
  2467  0A24  1683               	bsf	3,5	;RP0=1, select bank1
  2468  0A25  1303               	bcf	3,6	;RP1=0, select bank1
  2469  0A26  1281               	bcf	1,5	;volatile
  2470                           
  2471                           ;tmr0_2.c: 8:     OPTION_REGbits.PSA = 0;
  2472  0A27  1181               	bcf	1,3	;volatile
  2473                           
  2474                           ;tmr0_2.c: 9:     switch(prescaler){
  2475  0A28  2A5D               	goto	l3004
  2476  0A29                     l2986:
  2477                           
  2478                           ;tmr0_2.c: 11:             OPTION_REGbits.PS = 0b000;
  2479  0A29  30F8               	movlw	-8
  2480  0A2A  1683               	bsf	3,5	;RP0=1, select bank1
  2481  0A2B  1303               	bcf	3,6	;RP1=0, select bank1
  2482  0A2C  0581               	andwf	1,f	;volatile
  2483                           
  2484                           ;tmr0_2.c: 12:             break;
  2485  0A2D  2A83               	goto	l3006
  2486  0A2E                     l2988:
  2487                           
  2488                           ;tmr0_2.c: 14:             OPTION_REGbits.PS = 0b001;
  2489  0A2E  1683               	bsf	3,5	;RP0=1, select bank1
  2490  0A2F  1303               	bcf	3,6	;RP1=0, select bank1
  2491  0A30  0801               	movf	1,w	;volatile
  2492  0A31  39F8               	andlw	-8
  2493  0A32  3801               	iorlw	1
  2494  0A33  0081               	movwf	1	;volatile
  2495                           
  2496                           ;tmr0_2.c: 15:             break;
  2497  0A34  2A83               	goto	l3006
  2498  0A35                     l2990:
  2499                           
  2500                           ;tmr0_2.c: 17:             OPTION_REGbits.PS = 0b010;
  2501  0A35  1683               	bsf	3,5	;RP0=1, select bank1
  2502  0A36  1303               	bcf	3,6	;RP1=0, select bank1
  2503  0A37  0801               	movf	1,w	;volatile
  2504  0A38  39F8               	andlw	-8
  2505  0A39  3802               	iorlw	2
  2506  0A3A  0081               	movwf	1	;volatile
  2507                           
  2508                           ;tmr0_2.c: 18:             break;
  2509  0A3B  2A83               	goto	l3006
  2510  0A3C                     l2992:
  2511                           
  2512                           ;tmr0_2.c: 20:             OPTION_REGbits.PS = 0b011;
  2513  0A3C  1683               	bsf	3,5	;RP0=1, select bank1
  2514  0A3D  1303               	bcf	3,6	;RP1=0, select bank1
  2515  0A3E  0801               	movf	1,w	;volatile
  2516  0A3F  39F8               	andlw	-8
  2517  0A40  3803               	iorlw	3
  2518  0A41  0081               	movwf	1	;volatile
  2519                           
  2520                           ;tmr0_2.c: 21:             break;
  2521  0A42  2A83               	goto	l3006
  2522  0A43                     l2994:
  2523                           
  2524                           ;tmr0_2.c: 23:             OPTION_REGbits.PS = 0b100;
  2525  0A43  1683               	bsf	3,5	;RP0=1, select bank1
  2526  0A44  1303               	bcf	3,6	;RP1=0, select bank1
  2527  0A45  0801               	movf	1,w	;volatile
  2528  0A46  39F8               	andlw	-8
  2529  0A47  3804               	iorlw	4
  2530  0A48  0081               	movwf	1	;volatile
  2531                           
  2532                           ;tmr0_2.c: 24:             break;
  2533  0A49  2A83               	goto	l3006
  2534  0A4A                     l2996:
  2535                           
  2536                           ;tmr0_2.c: 26:             OPTION_REGbits.PS = 0b101;
  2537  0A4A  1683               	bsf	3,5	;RP0=1, select bank1
  2538  0A4B  1303               	bcf	3,6	;RP1=0, select bank1
  2539  0A4C  0801               	movf	1,w	;volatile
  2540  0A4D  39F8               	andlw	-8
  2541  0A4E  3805               	iorlw	5
  2542  0A4F  0081               	movwf	1	;volatile
  2543                           
  2544                           ;tmr0_2.c: 27:             break;
  2545  0A50  2A83               	goto	l3006
  2546  0A51                     l2998:
  2547                           
  2548                           ;tmr0_2.c: 29:             OPTION_REGbits.PS = 0b110;
  2549  0A51  1683               	bsf	3,5	;RP0=1, select bank1
  2550  0A52  1303               	bcf	3,6	;RP1=0, select bank1
  2551  0A53  0801               	movf	1,w	;volatile
  2552  0A54  39F8               	andlw	-8
  2553  0A55  3806               	iorlw	6
  2554  0A56  0081               	movwf	1	;volatile
  2555                           
  2556                           ;tmr0_2.c: 30:             break;
  2557  0A57  2A83               	goto	l3006
  2558  0A58                     l3000:
  2559                           
  2560                           ;tmr0_2.c: 32:             OPTION_REGbits.PS = 0b111;
  2561  0A58  3007               	movlw	7
  2562  0A59  1683               	bsf	3,5	;RP0=1, select bank1
  2563  0A5A  1303               	bcf	3,6	;RP1=0, select bank1
  2564  0A5B  0481               	iorwf	1,f	;volatile
  2565                           
  2566                           ;tmr0_2.c: 33:             break;
  2567  0A5C  2A83               	goto	l3006
  2568  0A5D                     l3004:
  2569                           
  2570                           ; Switch on 2 bytes has been partitioned into a top level switch of size 1, and 2 sub-sw
      +                          itches
  2571                           ; Switch size 1, requested type "simple"
  2572                           ; Number of cases is 2, Range of values is 0 to 1
  2573                           ; switch strategies available:
  2574                           ; Name         Instructions Cycles
  2575                           ; simple_byte            7     4 (average)
  2576                           ; direct_byte           14     8 (fixed)
  2577                           ; jumptable            260     6 (fixed)
  2578                           ;	Chosen strategy is simple_byte
  2579  0A5D  1283               	bcf	3,5	;RP0=0, select bank0
  2580  0A5E  1303               	bcf	3,6	;RP1=0, select bank0
  2581  0A5F  0821               	movf	tmr0_init@prescaler+1,w
  2582  0A60  3A00               	xorlw	0	; case 0
  2583  0A61  1903               	skipnz
  2584  0A62  2A67               	goto	l3266
  2585  0A63  3A01               	xorlw	1	; case 1
  2586  0A64  1903               	skipnz
  2587  0A65  2A7E               	goto	l3268
  2588  0A66  2A83               	goto	l3006
  2589  0A67                     l3266:
  2590                           
  2591                           ; Switch size 1, requested type "simple"
  2592                           ; Number of cases is 7, Range of values is 2 to 128
  2593                           ; switch strategies available:
  2594                           ; Name         Instructions Cycles
  2595                           ; simple_byte           22    12 (average)
  2596                           ; jumptable            263     9 (fixed)
  2597                           ;	Chosen strategy is simple_byte
  2598  0A67  0820               	movf	tmr0_init@prescaler,w
  2599  0A68  3A02               	xorlw	2	; case 2
  2600  0A69  1903               	skipnz
  2601  0A6A  2A29               	goto	l2986
  2602  0A6B  3A06               	xorlw	6	; case 4
  2603  0A6C  1903               	skipnz
  2604  0A6D  2A2E               	goto	l2988
  2605  0A6E  3A0C               	xorlw	12	; case 8
  2606  0A6F  1903               	skipnz
  2607  0A70  2A35               	goto	l2990
  2608  0A71  3A18               	xorlw	24	; case 16
  2609  0A72  1903               	skipnz
  2610  0A73  2A3C               	goto	l2992
  2611  0A74  3A30               	xorlw	48	; case 32
  2612  0A75  1903               	skipnz
  2613  0A76  2A43               	goto	l2994
  2614  0A77  3A60               	xorlw	96	; case 64
  2615  0A78  1903               	skipnz
  2616  0A79  2A4A               	goto	l2996
  2617  0A7A  3AC0               	xorlw	192	; case 128
  2618  0A7B  1903               	skipnz
  2619  0A7C  2A51               	goto	l2998
  2620  0A7D  2A83               	goto	l3006
  2621  0A7E                     l3268:
  2622                           
  2623                           ; Switch size 1, requested type "simple"
  2624                           ; Number of cases is 1, Range of values is 0 to 0
  2625                           ; switch strategies available:
  2626                           ; Name         Instructions Cycles
  2627                           ; simple_byte            4     3 (average)
  2628                           ; direct_byte           11     8 (fixed)
  2629                           ; jumptable            260     6 (fixed)
  2630                           ;	Chosen strategy is simple_byte
  2631  0A7E  0820               	movf	tmr0_init@prescaler,w
  2632  0A7F  3A00               	xorlw	0	; case 0
  2633  0A80  1903               	skipnz
  2634  0A81  2A58               	goto	l3000
  2635  0A82  2A83               	goto	l3006
  2636  0A83                     l3006:
  2637                           
  2638                           ;tmr0_2.c: 37:     TMR0 = 61;
  2639  0A83  303D               	movlw	61
  2640  0A84  1283               	bcf	3,5	;RP0=0, select bank0
  2641  0A85  0081               	movwf	1	;volatile
  2642  0A86                     l3008:
  2643                           
  2644                           ;tmr0_2.c: 38:     INTCONbits.T0IF = 0;
  2645  0A86  110B               	bcf	11,2	;volatile
  2646  0A87                     l207:
  2647  0A87  0008               	return
  2648  0A88                     __end_of_tmr0_init:
  2649                           
  2650                           	psect	text7
  2651  08F0                     __ptext7:	
  2652 ;; *************** function _init_osc_MHz *****************
  2653 ;; Defined at:
  2654 ;;		line 15 in file "Oscilador.c"
  2655 ;; Parameters:    Size  Location     Type
  2656 ;;  freq            1    wreg     unsigned char 
  2657 ;; Auto vars:     Size  Location     Type
  2658 ;;  freq            1    2[BANK0 ] unsigned char 
  2659 ;; Return value:  Size  Location     Type
  2660 ;;                  1    wreg      void 
  2661 ;; Registers used:
  2662 ;;		wreg, fsr0l, fsr0h, status,2, status,0
  2663 ;; Tracked objects:
  2664 ;;		On entry : 0/0
  2665 ;;		On exit  : 0/0
  2666 ;;		Unchanged: 0/0
  2667 ;; Data sizes:     COMMON   BANK0   BANK1   BANK3   BANK2
  2668 ;;      Params:         0       0       0       0       0
  2669 ;;      Locals:         0       1       0       0       0
  2670 ;;      Temps:          0       2       0       0       0
  2671 ;;      Totals:         0       3       0       0       0
  2672 ;;Total ram usage:        3 bytes
  2673 ;; Hardware stack levels used: 1
  2674 ;; Hardware stack levels required when called: 2
  2675 ;; This function calls:
  2676 ;;		Nothing
  2677 ;; This function is called by:
  2678 ;;		_setup
  2679 ;; This function uses a non-reentrant model
  2680 ;;
  2681                           
  2682  08F0                     _init_osc_MHz:	
  2683                           ;psect for function _init_osc_MHz
  2684                           
  2685                           
  2686                           ;incstack = 0
  2687                           ; Regs used in _init_osc_MHz: [wreg-fsr0h+status,2+status,0]
  2688                           ;init_osc_MHz@freq stored from wreg
  2689  08F0  1283               	bcf	3,5	;RP0=0, select bank0
  2690  08F1  1303               	bcf	3,6	;RP1=0, select bank0
  2691  08F2  00A2               	movwf	init_osc_MHz@freq
  2692  08F3                     l1918:
  2693                           
  2694                           ;Oscilador.c: 16:     OSCCONbits.SCS = 1;
  2695  08F3  1683               	bsf	3,5	;RP0=1, select bank1
  2696  08F4  1303               	bcf	3,6	;RP1=0, select bank1
  2697  08F5  140F               	bsf	15,0	;volatile
  2698                           
  2699                           ;Oscilador.c: 17:     switch(freq){
  2700  08F6  291F               	goto	l1934
  2701  08F7                     l1920:
  2702                           
  2703                           ;Oscilador.c: 19:             OSCCONbits.IRCF = 0b100;
  2704  08F7  1683               	bsf	3,5	;RP0=1, select bank1
  2705  08F8  1303               	bcf	3,6	;RP1=0, select bank1
  2706  08F9  080F               	movf	15,w	;volatile
  2707  08FA  398F               	andlw	-113
  2708  08FB  3840               	iorlw	64
  2709  08FC  008F               	movwf	15	;volatile
  2710                           
  2711                           ;Oscilador.c: 20:             break;
  2712  08FD  293A               	goto	l115
  2713  08FE                     l1922:
  2714                           
  2715                           ;Oscilador.c: 22:             OSCCONbits.IRCF = 0b101;
  2716  08FE  1683               	bsf	3,5	;RP0=1, select bank1
  2717  08FF  1303               	bcf	3,6	;RP1=0, select bank1
  2718  0900  080F               	movf	15,w	;volatile
  2719  0901  398F               	andlw	-113
  2720  0902  3850               	iorlw	80
  2721  0903  008F               	movwf	15	;volatile
  2722                           
  2723                           ;Oscilador.c: 23:             break;
  2724  0904  293A               	goto	l115
  2725  0905                     l1924:
  2726                           
  2727                           ;Oscilador.c: 25:             OSCCONbits.IRCF = 0b110;
  2728  0905  1683               	bsf	3,5	;RP0=1, select bank1
  2729  0906  1303               	bcf	3,6	;RP1=0, select bank1
  2730  0907  080F               	movf	15,w	;volatile
  2731  0908  398F               	andlw	-113
  2732  0909  3860               	iorlw	96
  2733  090A  008F               	movwf	15	;volatile
  2734                           
  2735                           ;Oscilador.c: 26:             break;
  2736  090B  293A               	goto	l115
  2737  090C                     l1926:
  2738                           
  2739                           ;Oscilador.c: 28:             OSCCONbits.IRCF = 0b111;
  2740  090C  3070               	movlw	112
  2741  090D  1683               	bsf	3,5	;RP0=1, select bank1
  2742  090E  1303               	bcf	3,6	;RP1=0, select bank1
  2743  090F  048F               	iorwf	15,f	;volatile
  2744                           
  2745                           ;Oscilador.c: 29:             break;
  2746  0910  293A               	goto	l115
  2747  0911                     l1928:
  2748                           
  2749                           ;Oscilador.c: 31:             OSCCONbits.IRCF = 0b011;
  2750  0911  1683               	bsf	3,5	;RP0=1, select bank1
  2751  0912  1303               	bcf	3,6	;RP1=0, select bank1
  2752  0913  080F               	movf	15,w	;volatile
  2753  0914  398F               	andlw	-113
  2754  0915  3830               	iorlw	48
  2755  0916  008F               	movwf	15	;volatile
  2756                           
  2757                           ;Oscilador.c: 32:             break;
  2758  0917  293A               	goto	l115
  2759  0918                     l1930:
  2760                           
  2761                           ;Oscilador.c: 34:             OSCCONbits.IRCF = 0b110;
  2762  0918  1683               	bsf	3,5	;RP0=1, select bank1
  2763  0919  1303               	bcf	3,6	;RP1=0, select bank1
  2764  091A  080F               	movf	15,w	;volatile
  2765  091B  398F               	andlw	-113
  2766  091C  3860               	iorlw	96
  2767  091D  008F               	movwf	15	;volatile
  2768                           
  2769                           ;Oscilador.c: 35:             break;
  2770  091E  293A               	goto	l115
  2771  091F                     l1934:
  2772  091F  1283               	bcf	3,5	;RP0=0, select bank0
  2773  0920  1303               	bcf	3,6	;RP1=0, select bank0
  2774  0921  0822               	movf	init_osc_MHz@freq,w
  2775  0922  00A0               	movwf	??_init_osc_MHz
  2776  0923  01A1               	clrf	??_init_osc_MHz+1
  2777                           
  2778                           ; Switch on 2 bytes has been partitioned into a top level switch of size 1, and 1 sub-sw
      +                          itches
  2779                           ; Switch size 1, requested type "simple"
  2780                           ; Number of cases is 1, Range of values is 0 to 0
  2781                           ; switch strategies available:
  2782                           ; Name         Instructions Cycles
  2783                           ; simple_byte            4     3 (average)
  2784                           ; direct_byte           11     8 (fixed)
  2785                           ; jumptable            260     6 (fixed)
  2786                           ;	Chosen strategy is simple_byte
  2787  0924  0821               	movf	??_init_osc_MHz+1,w
  2788  0925  3A00               	xorlw	0	; case 0
  2789  0926  1903               	skipnz
  2790  0927  2929               	goto	l3270
  2791  0928  2918               	goto	l1930
  2792  0929                     l3270:
  2793                           
  2794                           ; Switch size 1, requested type "simple"
  2795                           ; Number of cases is 5, Range of values is 0 to 4
  2796                           ; switch strategies available:
  2797                           ; Name         Instructions Cycles
  2798                           ; simple_byte           16     9 (average)
  2799                           ; direct_byte           23     8 (fixed)
  2800                           ; jumptable            260     6 (fixed)
  2801                           ;	Chosen strategy is simple_byte
  2802  0929  0820               	movf	??_init_osc_MHz,w
  2803  092A  3A00               	xorlw	0	; case 0
  2804  092B  1903               	skipnz
  2805  092C  28F7               	goto	l1920
  2806  092D  3A01               	xorlw	1	; case 1
  2807  092E  1903               	skipnz
  2808  092F  28FE               	goto	l1922
  2809  0930  3A03               	xorlw	3	; case 2
  2810  0931  1903               	skipnz
  2811  0932  2905               	goto	l1924
  2812  0933  3A01               	xorlw	1	; case 3
  2813  0934  1903               	skipnz
  2814  0935  290C               	goto	l1926
  2815  0936  3A07               	xorlw	7	; case 4
  2816  0937  1903               	skipnz
  2817  0938  2911               	goto	l1928
  2818  0939  2918               	goto	l1930
  2819  093A                     l115:
  2820  093A  0008               	return
  2821  093B                     __end_of_init_osc_MHz:
  2822                           
  2823                           	psect	text8
  2824  0987                     __ptext8:	
  2825 ;; *************** function _adc_init *****************
  2826 ;; Defined at:
  2827 ;;		line 13 in file "adc2.c"
  2828 ;; Parameters:    Size  Location     Type
  2829 ;;  adc_cs          1    wreg     unsigned char 
  2830 ;;  vref_plus       1    0[BANK0 ] unsigned char 
  2831 ;;  vref_minus      1    1[BANK0 ] unsigned char 
  2832 ;; Auto vars:     Size  Location     Type
  2833 ;;  adc_cs          1    4[BANK0 ] unsigned char 
  2834 ;; Return value:  Size  Location     Type
  2835 ;;                  1    wreg      void 
  2836 ;; Registers used:
  2837 ;;		wreg, fsr0l, fsr0h, status,2, status,0
  2838 ;; Tracked objects:
  2839 ;;		On entry : 0/0
  2840 ;;		On exit  : 0/0
  2841 ;;		Unchanged: 0/0
  2842 ;; Data sizes:     COMMON   BANK0   BANK1   BANK3   BANK2
  2843 ;;      Params:         0       2       0       0       0
  2844 ;;      Locals:         0       1       0       0       0
  2845 ;;      Temps:          0       2       0       0       0
  2846 ;;      Totals:         0       5       0       0       0
  2847 ;;Total ram usage:        5 bytes
  2848 ;; Hardware stack levels used: 1
  2849 ;; Hardware stack levels required when called: 2
  2850 ;; This function calls:
  2851 ;;		Nothing
  2852 ;; This function is called by:
  2853 ;;		_setup
  2854 ;; This function uses a non-reentrant model
  2855 ;;
  2856                           
  2857  0987                     _adc_init:	
  2858                           ;psect for function _adc_init
  2859                           
  2860                           
  2861                           ;incstack = 0
  2862                           ; Regs used in _adc_init: [wreg-fsr0h+status,2+status,0]
  2863                           ;adc_init@adc_cs stored from wreg
  2864  0987  1283               	bcf	3,5	;RP0=0, select bank0
  2865  0988  1303               	bcf	3,6	;RP1=0, select bank0
  2866  0989  00A4               	movwf	adc_init@adc_cs
  2867  098A                     l1940:
  2868                           
  2869                           ;adc2.c: 15:     switch(adc_cs){
  2870  098A  299B               	goto	l1952
  2871  098B                     l1942:
  2872                           
  2873                           ;adc2.c: 17:             ADCON0bits.ADCS = 0b00;
  2874  098B  303F               	movlw	-193
  2875  098C  059F               	andwf	31,f	;volatile
  2876                           
  2877                           ;adc2.c: 18:             break;
  2878  098D  29B1               	goto	l1954
  2879  098E                     l1944:
  2880                           
  2881                           ;adc2.c: 20:             ADCON0bits.ADCS = 0b01;
  2882  098E  081F               	movf	31,w	;volatile
  2883  098F  393F               	andlw	-193
  2884  0990  3840               	iorlw	64
  2885  0991  009F               	movwf	31	;volatile
  2886                           
  2887                           ;adc2.c: 21:             break;
  2888  0992  29B1               	goto	l1954
  2889  0993                     l1946:
  2890                           
  2891                           ;adc2.c: 23:             ADCON0bits.ADCS = 0b10;
  2892  0993  081F               	movf	31,w	;volatile
  2893  0994  393F               	andlw	-193
  2894  0995  3880               	iorlw	128
  2895  0996  009F               	movwf	31	;volatile
  2896                           
  2897                           ;adc2.c: 24:             break;
  2898  0997  29B1               	goto	l1954
  2899  0998                     l1948:
  2900                           
  2901                           ;adc2.c: 26:             ADCON0bits.ADCS = 0b11;
  2902  0998  30C0               	movlw	192
  2903  0999  049F               	iorwf	31,f	;volatile
  2904                           
  2905                           ;adc2.c: 27:             break;
  2906  099A  29B1               	goto	l1954
  2907  099B                     l1952:
  2908  099B  0824               	movf	adc_init@adc_cs,w
  2909  099C  00A2               	movwf	??_adc_init
  2910  099D  01A3               	clrf	??_adc_init+1
  2911                           
  2912                           ; Switch on 2 bytes has been partitioned into a top level switch of size 1, and 1 sub-sw
      +                          itches
  2913                           ; Switch size 1, requested type "simple"
  2914                           ; Number of cases is 1, Range of values is 0 to 0
  2915                           ; switch strategies available:
  2916                           ; Name         Instructions Cycles
  2917                           ; simple_byte            4     3 (average)
  2918                           ; direct_byte           11     8 (fixed)
  2919                           ; jumptable            260     6 (fixed)
  2920                           ;	Chosen strategy is simple_byte
  2921  099E  0823               	movf	??_adc_init+1,w
  2922  099F  3A00               	xorlw	0	; case 0
  2923  09A0  1903               	skipnz
  2924  09A1  29A3               	goto	l3272
  2925  09A2  29B1               	goto	l1954
  2926  09A3                     l3272:
  2927                           
  2928                           ; Switch size 1, requested type "simple"
  2929                           ; Number of cases is 4, Range of values is 0 to 3
  2930                           ; switch strategies available:
  2931                           ; Name         Instructions Cycles
  2932                           ; simple_byte           13     7 (average)
  2933                           ; direct_byte           20     8 (fixed)
  2934                           ; jumptable            260     6 (fixed)
  2935                           ;	Chosen strategy is simple_byte
  2936  09A3  0822               	movf	??_adc_init,w
  2937  09A4  3A00               	xorlw	0	; case 0
  2938  09A5  1903               	skipnz
  2939  09A6  298B               	goto	l1942
  2940  09A7  3A01               	xorlw	1	; case 1
  2941  09A8  1903               	skipnz
  2942  09A9  298E               	goto	l1944
  2943  09AA  3A03               	xorlw	3	; case 2
  2944  09AB  1903               	skipnz
  2945  09AC  2993               	goto	l1946
  2946  09AD  3A01               	xorlw	1	; case 3
  2947  09AE  1903               	skipnz
  2948  09AF  2998               	goto	l1948
  2949  09B0  29B1               	goto	l1954
  2950  09B1                     l1954:
  2951                           
  2952                           ;adc2.c: 31:     ADCON1bits.VCFG0 = vref_plus;
  2953  09B1  0C20               	rrf	adc_init@vref_plus,w
  2954  09B2  1683               	bsf	3,5	;RP0=1, select bank1
  2955  09B3  1303               	bcf	3,6	;RP1=0, select bank1
  2956  09B4  1C03               	skipc
  2957  09B5  121F               	bcf	31,4	;volatile
  2958  09B6  1803               	skipnc
  2959  09B7  161F               	bsf	31,4	;volatile
  2960                           
  2961                           ;adc2.c: 32:     ADCON1bits.VCFG1 = vref_minus;
  2962  09B8  1283               	bcf	3,5	;RP0=0, select bank0
  2963  09B9  1303               	bcf	3,6	;RP1=0, select bank0
  2964  09BA  0C21               	rrf	adc_init@vref_minus,w
  2965  09BB  1683               	bsf	3,5	;RP0=1, select bank1
  2966  09BC  1303               	bcf	3,6	;RP1=0, select bank1
  2967  09BD  1C03               	skipc
  2968  09BE  129F               	bcf	31,5	;volatile
  2969  09BF  1803               	skipnc
  2970  09C0  169F               	bsf	31,5	;volatile
  2971  09C1                     l1956:
  2972                           
  2973                           ;adc2.c: 33:     ADCON0bits.CHS = 0b0000;
  2974  09C1  30C3               	movlw	-61
  2975  09C2  1283               	bcf	3,5	;RP0=0, select bank0
  2976  09C3  1303               	bcf	3,6	;RP1=0, select bank0
  2977  09C4  059F               	andwf	31,f	;volatile
  2978  09C5                     l1958:
  2979                           
  2980                           ;adc2.c: 34:     ADCON1bits.ADFM = 0;
  2981  09C5  1683               	bsf	3,5	;RP0=1, select bank1
  2982  09C6  1303               	bcf	3,6	;RP1=0, select bank1
  2983  09C7  139F               	bcf	31,7	;volatile
  2984  09C8                     l1960:
  2985                           
  2986                           ;adc2.c: 35:     ADCON0bits.ADON = 1;
  2987  09C8  1283               	bcf	3,5	;RP0=0, select bank0
  2988  09C9  1303               	bcf	3,6	;RP1=0, select bank0
  2989  09CA  141F               	bsf	31,0	;volatile
  2990  09CB                     l1962:
  2991                           
  2992                           ;adc2.c: 36:     _delay((unsigned long)((40)*(8000000/4000000.0)));
  2993  09CB  3019               	movlw	25
  2994  09CC  1283               	bcf	3,5	;RP0=0, select bank0
  2995  09CD  1303               	bcf	3,6	;RP1=0, select bank0
  2996  09CE  00A2               	movwf	??_adc_init
  2997  09CF                     u3687:
  2998  09CF  0BA2               	decfsz	??_adc_init,f
  2999  09D0  29CF               	goto	u3687
  3000  09D1  29D2               	nop2
  3001  09D2                     l135:
  3002  09D2  0008               	return
  3003  09D3                     __end_of_adc_init:
  3004                           
  3005                           	psect	text9
  3006  0BD6                     __ptext9:	
  3007 ;; *************** function _map *****************
  3008 ;; Defined at:
  3009 ;;		line 158 in file "main2.c"
  3010 ;; Parameters:    Size  Location     Type
  3011 ;;  x               1    wreg     unsigned char 
  3012 ;;  x0              1   17[BANK1 ] unsigned char 
  3013 ;;  x1              1   18[BANK1 ] unsigned char 
  3014 ;;  y0              2   19[BANK1 ] unsigned short 
  3015 ;;  y1              2   21[BANK1 ] unsigned short 
  3016 ;; Auto vars:     Size  Location     Type
  3017 ;;  x               1   23[BANK1 ] unsigned char 
  3018 ;; Return value:  Size  Location     Type
  3019 ;;                  2   17[BANK1 ] unsigned short 
  3020 ;; Registers used:
  3021 ;;		wreg, status,2, status,0, btemp+1, pclath, cstack
  3022 ;; Tracked objects:
  3023 ;;		On entry : 0/0
  3024 ;;		On exit  : 0/0
  3025 ;;		Unchanged: 0/0
  3026 ;; Data sizes:     COMMON   BANK0   BANK1   BANK3   BANK2
  3027 ;;      Params:         0       0       6       0       0
  3028 ;;      Locals:         0       0       1       0       0
  3029 ;;      Temps:          0       0       0       0       0
  3030 ;;      Totals:         0       0       7       0       0
  3031 ;;Total ram usage:        7 bytes
  3032 ;; Hardware stack levels used: 1
  3033 ;; Hardware stack levels required when called: 4
  3034 ;; This function calls:
  3035 ;;		___fladd
  3036 ;;		___fldiv
  3037 ;;		___flmul
  3038 ;;		___fltol
  3039 ;;		___xxtofl
  3040 ;; This function is called by:
  3041 ;;		_main
  3042 ;; This function uses a non-reentrant model
  3043 ;;
  3044                           
  3045  0BD6                     _map:	
  3046                           ;psect for function _map
  3047                           
  3048                           
  3049                           ;incstack = 0
  3050                           ; Regs used in _map: [wreg+status,2+status,0+btemp+1+pclath+cstack]
  3051                           ;map@x stored from wreg
  3052  0BD6  1683               	bsf	3,5	;RP0=1, select bank1
  3053  0BD7  1303               	bcf	3,6	;RP1=0, select bank1
  3054  0BD8  00B7               	movwf	map@x^(0+128)
  3055  0BD9                     l3072:
  3056                           
  3057                           ;main2.c: 158: unsigned short map(uint8_t x, uint8_t x0, uint8_t x1,;main2.c: 159:      
      +                                 unsigned short y0, unsigned short y1){;main2.c: 160:     return (unsigned short)(
      +                          y0+((float)(y1-y0)/(x1-x0))*(x-x0));
  3058  0BD9  0833               	movf	map@y0^(0+128),w
  3059  0BDA  1283               	bcf	3,5	;RP0=0, select bank0
  3060  0BDB  1303               	bcf	3,6	;RP1=0, select bank0
  3061  0BDC  00A0               	movwf	___xxtofl@val
  3062  0BDD  1683               	bsf	3,5	;RP0=1, select bank1
  3063  0BDE  1303               	bcf	3,6	;RP1=0, select bank1
  3064  0BDF  0834               	movf	(map@y0+1)^(0+128),w
  3065  0BE0  1283               	bcf	3,5	;RP0=0, select bank0
  3066  0BE1  1303               	bcf	3,6	;RP1=0, select bank0
  3067  0BE2  00A1               	movwf	___xxtofl@val+1
  3068  0BE3  01A2               	clrf	___xxtofl@val+2
  3069  0BE4  01A3               	clrf	___xxtofl@val+3
  3070  0BE5  3000               	movlw	0
  3071  0BE6  120A  158A  231A  120A  158A  	fcall	___xxtofl
  3072  0BEB  1283               	bcf	3,5	;RP0=0, select bank0
  3073  0BEC  1303               	bcf	3,6	;RP1=0, select bank0
  3074  0BED  0823               	movf	?___xxtofl+3,w
  3075  0BEE  00E9               	movwf	___fladd@a+3
  3076  0BEF  0822               	movf	?___xxtofl+2,w
  3077  0BF0  00E8               	movwf	___fladd@a+2
  3078  0BF1  0821               	movf	?___xxtofl+1,w
  3079  0BF2  00E7               	movwf	___fladd@a+1
  3080  0BF3  0820               	movf	?___xxtofl,w
  3081  0BF4  00E6               	movwf	___fladd@a
  3082  0BF5  1683               	bsf	3,5	;RP0=1, select bank1
  3083  0BF6  1303               	bcf	3,6	;RP1=0, select bank1
  3084  0BF7  0833               	movf	map@y0^(0+128),w
  3085  0BF8  0235               	subwf	map@y1^(0+128),w
  3086  0BF9  1283               	bcf	3,5	;RP0=0, select bank0
  3087  0BFA  1303               	bcf	3,6	;RP1=0, select bank0
  3088  0BFB  00A0               	movwf	___xxtofl@val
  3089  0BFC  1683               	bsf	3,5	;RP0=1, select bank1
  3090  0BFD  1303               	bcf	3,6	;RP1=0, select bank1
  3091  0BFE  0834               	movf	(map@y0+1)^(0+128),w
  3092  0BFF  1C03               	skipc
  3093  0C00  0A34               	incf	(map@y0+1)^(0+128),w
  3094  0C01  0236               	subwf	(map@y1+1)^(0+128),w
  3095  0C02  1283               	bcf	3,5	;RP0=0, select bank0
  3096  0C03  1303               	bcf	3,6	;RP1=0, select bank0
  3097  0C04  00A1               	movwf	___xxtofl@val+1
  3098  0C05  01A2               	clrf	___xxtofl@val+2
  3099  0C06  01A3               	clrf	___xxtofl@val+3
  3100  0C07  3000               	movlw	0
  3101  0C08  120A  158A  231A  120A  158A  	fcall	___xxtofl
  3102  0C0D  1283               	bcf	3,5	;RP0=0, select bank0
  3103  0C0E  1303               	bcf	3,6	;RP1=0, select bank0
  3104  0C0F  0823               	movf	?___xxtofl+3,w
  3105  0C10  00B5               	movwf	___fldiv@b+3
  3106  0C11  0822               	movf	?___xxtofl+2,w
  3107  0C12  00B4               	movwf	___fldiv@b+2
  3108  0C13  0821               	movf	?___xxtofl+1,w
  3109  0C14  00B3               	movwf	___fldiv@b+1
  3110  0C15  0820               	movf	?___xxtofl,w
  3111  0C16  00B2               	movwf	___fldiv@b
  3112  0C17  1683               	bsf	3,5	;RP0=1, select bank1
  3113  0C18  1303               	bcf	3,6	;RP1=0, select bank1
  3114  0C19  0831               	movf	map@x0^(0+128),w
  3115  0C1A  0232               	subwf	map@x1^(0+128),w
  3116  0C1B  1283               	bcf	3,5	;RP0=0, select bank0
  3117  0C1C  1303               	bcf	3,6	;RP1=0, select bank0
  3118  0C1D  00A0               	movwf	___xxtofl@val
  3119  0C1E  01A1               	clrf	___xxtofl@val+1
  3120  0C1F  1C03               	skipc
  3121  0C20  03A1               	decf	___xxtofl@val+1,f
  3122  0C21  01A2               	clrf	___xxtofl@val+2
  3123  0C22  1BA1               	btfsc	___xxtofl@val+1,7
  3124  0C23  03A2               	decf	___xxtofl@val+2,f
  3125  0C24  0822               	movf	___xxtofl@val+2,w
  3126  0C25  00A3               	movwf	___xxtofl@val+3
  3127  0C26  3001               	movlw	1
  3128  0C27  120A  158A  231A  120A  158A  	fcall	___xxtofl
  3129  0C2C  1283               	bcf	3,5	;RP0=0, select bank0
  3130  0C2D  1303               	bcf	3,6	;RP1=0, select bank0
  3131  0C2E  0823               	movf	?___xxtofl+3,w
  3132  0C2F  00B1               	movwf	___fldiv@a+3
  3133  0C30  0822               	movf	?___xxtofl+2,w
  3134  0C31  00B0               	movwf	___fldiv@a+2
  3135  0C32  0821               	movf	?___xxtofl+1,w
  3136  0C33  00AF               	movwf	___fldiv@a+1
  3137  0C34  0820               	movf	?___xxtofl,w
  3138  0C35  00AE               	movwf	___fldiv@a
  3139  0C36  120A  158A  2623  120A  158A  	fcall	___fldiv
  3140  0C3B  1283               	bcf	3,5	;RP0=0, select bank0
  3141  0C3C  1303               	bcf	3,6	;RP1=0, select bank0
  3142  0C3D  0831               	movf	?___fldiv+3,w
  3143  0C3E  00CF               	movwf	___flmul@a+3
  3144  0C3F  0830               	movf	?___fldiv+2,w
  3145  0C40  00CE               	movwf	___flmul@a+2
  3146  0C41  082F               	movf	?___fldiv+1,w
  3147  0C42  00CD               	movwf	___flmul@a+1
  3148  0C43  082E               	movf	?___fldiv,w
  3149  0C44  00CC               	movwf	___flmul@a
  3150  0C45  1683               	bsf	3,5	;RP0=1, select bank1
  3151  0C46  1303               	bcf	3,6	;RP1=0, select bank1
  3152  0C47  0831               	movf	map@x0^(0+128),w
  3153  0C48  0237               	subwf	map@x^(0+128),w
  3154  0C49  1283               	bcf	3,5	;RP0=0, select bank0
  3155  0C4A  1303               	bcf	3,6	;RP1=0, select bank0
  3156  0C4B  00A0               	movwf	___xxtofl@val
  3157  0C4C  01A1               	clrf	___xxtofl@val+1
  3158  0C4D  1C03               	skipc
  3159  0C4E  03A1               	decf	___xxtofl@val+1,f
  3160  0C4F  01A2               	clrf	___xxtofl@val+2
  3161  0C50  1BA1               	btfsc	___xxtofl@val+1,7
  3162  0C51  03A2               	decf	___xxtofl@val+2,f
  3163  0C52  0822               	movf	___xxtofl@val+2,w
  3164  0C53  00A3               	movwf	___xxtofl@val+3
  3165  0C54  3001               	movlw	1
  3166  0C55  120A  158A  231A  120A  158A  	fcall	___xxtofl
  3167  0C5A  1283               	bcf	3,5	;RP0=0, select bank0
  3168  0C5B  1303               	bcf	3,6	;RP1=0, select bank0
  3169  0C5C  0823               	movf	?___xxtofl+3,w
  3170  0C5D  00CB               	movwf	___flmul@b+3
  3171  0C5E  0822               	movf	?___xxtofl+2,w
  3172  0C5F  00CA               	movwf	___flmul@b+2
  3173  0C60  0821               	movf	?___xxtofl+1,w
  3174  0C61  00C9               	movwf	___flmul@b+1
  3175  0C62  0820               	movf	?___xxtofl,w
  3176  0C63  00C8               	movwf	___flmul@b
  3177  0C64  120A  118A  238A  120A  158A  	fcall	___flmul
  3178  0C69  1283               	bcf	3,5	;RP0=0, select bank0
  3179  0C6A  1303               	bcf	3,6	;RP1=0, select bank0
  3180  0C6B  084B               	movf	?___flmul+3,w
  3181  0C6C  00E5               	movwf	___fladd@b+3
  3182  0C6D  084A               	movf	?___flmul+2,w
  3183  0C6E  00E4               	movwf	___fladd@b+2
  3184  0C6F  0849               	movf	?___flmul+1,w
  3185  0C70  00E3               	movwf	___fladd@b+1
  3186  0C71  0848               	movf	?___flmul,w
  3187  0C72  00E2               	movwf	___fladd@b
  3188  0C73  120A  118A  2024  120A  158A  	fcall	___fladd
  3189  0C78  1283               	bcf	3,5	;RP0=0, select bank0
  3190  0C79  1303               	bcf	3,6	;RP1=0, select bank0
  3191  0C7A  0865               	movf	?___fladd+3,w
  3192  0C7B  1683               	bsf	3,5	;RP0=1, select bank1
  3193  0C7C  1303               	bcf	3,6	;RP1=0, select bank1
  3194  0C7D  00AB               	movwf	(___fltol@f1+3)^(0+128)
  3195  0C7E  1283               	bcf	3,5	;RP0=0, select bank0
  3196  0C7F  1303               	bcf	3,6	;RP1=0, select bank0
  3197  0C80  0864               	movf	?___fladd+2,w
  3198  0C81  1683               	bsf	3,5	;RP0=1, select bank1
  3199  0C82  1303               	bcf	3,6	;RP1=0, select bank1
  3200  0C83  00AA               	movwf	(___fltol@f1+2)^(0+128)
  3201  0C84  1283               	bcf	3,5	;RP0=0, select bank0
  3202  0C85  1303               	bcf	3,6	;RP1=0, select bank0
  3203  0C86  0863               	movf	?___fladd+1,w
  3204  0C87  1683               	bsf	3,5	;RP0=1, select bank1
  3205  0C88  1303               	bcf	3,6	;RP1=0, select bank1
  3206  0C89  00A9               	movwf	(___fltol@f1+1)^(0+128)
  3207  0C8A  1283               	bcf	3,5	;RP0=0, select bank0
  3208  0C8B  1303               	bcf	3,6	;RP1=0, select bank0
  3209  0C8C  0862               	movf	?___fladd,w
  3210  0C8D  1683               	bsf	3,5	;RP0=1, select bank1
  3211  0C8E  1303               	bcf	3,6	;RP1=0, select bank1
  3212  0C8F  00A8               	movwf	___fltol@f1^(0+128)
  3213  0C90  120A  158A  2288  120A  158A  	fcall	___fltol
  3214  0C95  1683               	bsf	3,5	;RP0=1, select bank1
  3215  0C96  1303               	bcf	3,6	;RP1=0, select bank1
  3216  0C97  0829               	movf	(?___fltol+1)^(0+128),w
  3217  0C98  00B2               	movwf	(?_map+1)^(0+128)
  3218  0C99  0828               	movf	?___fltol^(0+128),w
  3219  0C9A  00B1               	movwf	?_map^(0+128)
  3220  0C9B                     l102:
  3221  0C9B  0008               	return
  3222  0C9C                     __end_of_map:
  3223                           
  3224                           	psect	text10
  3225  0B1A                     __ptext10:	
  3226 ;; *************** function ___xxtofl *****************
  3227 ;; Defined at:
  3228 ;;		line 10 in file "C:\Program Files\Microchip\xc8\v2.35\pic\sources\c90\common\xxtofl.c"
  3229 ;; Parameters:    Size  Location     Type
  3230 ;;  sign            1    wreg     unsigned char 
  3231 ;;  val             4    0[BANK0 ] long 
  3232 ;; Auto vars:     Size  Location     Type
  3233 ;;  sign            1    8[BANK0 ] unsigned char 
  3234 ;;  arg             4   10[BANK0 ] unsigned long 
  3235 ;;  exp             1    9[BANK0 ] unsigned char 
  3236 ;; Return value:  Size  Location     Type
  3237 ;;                  4    0[BANK0 ] unsigned char 
  3238 ;; Registers used:
  3239 ;;		wreg, status,2, status,0
  3240 ;; Tracked objects:
  3241 ;;		On entry : 0/0
  3242 ;;		On exit  : 0/0
  3243 ;;		Unchanged: 0/0
  3244 ;; Data sizes:     COMMON   BANK0   BANK1   BANK3   BANK2
  3245 ;;      Params:         0       4       0       0       0
  3246 ;;      Locals:         0       6       0       0       0
  3247 ;;      Temps:          0       4       0       0       0
  3248 ;;      Totals:         0      14       0       0       0
  3249 ;;Total ram usage:       14 bytes
  3250 ;; Hardware stack levels used: 1
  3251 ;; Hardware stack levels required when called: 2
  3252 ;; This function calls:
  3253 ;;		Nothing
  3254 ;; This function is called by:
  3255 ;;		_map
  3256 ;; This function uses a non-reentrant model
  3257 ;;
  3258                           
  3259  0B1A                     ___xxtofl:	
  3260                           ;psect for function ___xxtofl
  3261                           
  3262                           
  3263                           ;incstack = 0
  3264                           ; Regs used in ___xxtofl: [wreg+status,2+status,0]
  3265                           ;___xxtofl@sign stored from wreg
  3266  0B1A  1283               	bcf	3,5	;RP0=0, select bank0
  3267  0B1B  1303               	bcf	3,6	;RP1=0, select bank0
  3268  0B1C  00A8               	movwf	___xxtofl@sign
  3269  0B1D                     l2584:
  3270  0B1D  0828               	movf	___xxtofl@sign,w
  3271  0B1E  1903               	btfsc	3,2
  3272  0B1F  2B21               	goto	u3181
  3273  0B20  2B22               	goto	u3180
  3274  0B21                     u3181:
  3275  0B21  2B36               	goto	l2590
  3276  0B22                     u3180:
  3277  0B22                     l2586:
  3278  0B22  1FA3               	btfss	___xxtofl@val+3,7
  3279  0B23  2B25               	goto	u3191
  3280  0B24  2B26               	goto	u3190
  3281  0B25                     u3191:
  3282  0B25  2B36               	goto	l2590
  3283  0B26                     u3190:
  3284  0B26                     l2588:
  3285  0B26  0920               	comf	___xxtofl@val,w
  3286  0B27  00AA               	movwf	___xxtofl@arg
  3287  0B28  0921               	comf	___xxtofl@val+1,w
  3288  0B29  00AB               	movwf	___xxtofl@arg+1
  3289  0B2A  0922               	comf	___xxtofl@val+2,w
  3290  0B2B  00AC               	movwf	___xxtofl@arg+2
  3291  0B2C  0923               	comf	___xxtofl@val+3,w
  3292  0B2D  00AD               	movwf	___xxtofl@arg+3
  3293  0B2E  0AAA               	incf	___xxtofl@arg,f
  3294  0B2F  1903               	skipnz
  3295  0B30  0AAB               	incf	___xxtofl@arg+1,f
  3296  0B31  1903               	skipnz
  3297  0B32  0AAC               	incf	___xxtofl@arg+2,f
  3298  0B33  1903               	skipnz
  3299  0B34  0AAD               	incf	___xxtofl@arg+3,f
  3300  0B35  2B3E               	goto	l757
  3301  0B36                     l2590:
  3302  0B36  0823               	movf	___xxtofl@val+3,w
  3303  0B37  00AD               	movwf	___xxtofl@arg+3
  3304  0B38  0822               	movf	___xxtofl@val+2,w
  3305  0B39  00AC               	movwf	___xxtofl@arg+2
  3306  0B3A  0821               	movf	___xxtofl@val+1,w
  3307  0B3B  00AB               	movwf	___xxtofl@arg+1
  3308  0B3C  0820               	movf	___xxtofl@val,w
  3309  0B3D  00AA               	movwf	___xxtofl@arg
  3310  0B3E                     l757:
  3311  0B3E  0823               	movf	___xxtofl@val+3,w
  3312  0B3F  0422               	iorwf	___xxtofl@val+2,w
  3313  0B40  0421               	iorwf	___xxtofl@val+1,w
  3314  0B41  0420               	iorwf	___xxtofl@val,w
  3315  0B42  1D03               	skipz
  3316  0B43  2B45               	goto	u3201
  3317  0B44  2B46               	goto	u3200
  3318  0B45                     u3201:
  3319  0B45  2B4F               	goto	l2596
  3320  0B46                     u3200:
  3321  0B46                     l2592:
  3322  0B46  3000               	movlw	0
  3323  0B47  00A3               	movwf	?___xxtofl+3
  3324  0B48  3000               	movlw	0
  3325  0B49  00A2               	movwf	?___xxtofl+2
  3326  0B4A  3000               	movlw	0
  3327  0B4B  00A1               	movwf	?___xxtofl+1
  3328  0B4C  3000               	movlw	0
  3329  0B4D  00A0               	movwf	?___xxtofl
  3330  0B4E  2BD5               	goto	l759
  3331  0B4F                     l2596:
  3332  0B4F  3096               	movlw	150
  3333  0B50  00A4               	movwf	??___xxtofl
  3334  0B51  0824               	movf	??___xxtofl,w
  3335  0B52  00A9               	movwf	___xxtofl@exp
  3336  0B53  2B61               	goto	l2600
  3337  0B54                     l2598:
  3338  0B54  3001               	movlw	1
  3339  0B55  00A4               	movwf	??___xxtofl
  3340  0B56  0824               	movf	??___xxtofl,w
  3341  0B57  07A9               	addwf	___xxtofl@exp,f
  3342  0B58  3001               	movlw	1
  3343  0B59                     u3215:
  3344  0B59  1003               	clrc
  3345  0B5A  0CAD               	rrf	___xxtofl@arg+3,f
  3346  0B5B  0CAC               	rrf	___xxtofl@arg+2,f
  3347  0B5C  0CAB               	rrf	___xxtofl@arg+1,f
  3348  0B5D  0CAA               	rrf	___xxtofl@arg,f
  3349  0B5E  3EFF               	addlw	-1
  3350  0B5F  1D03               	skipz
  3351  0B60  2B59               	goto	u3215
  3352  0B61                     l2600:
  3353  0B61  30FE               	movlw	254
  3354  0B62  052D               	andwf	___xxtofl@arg+3,w
  3355  0B63  1D03               	btfss	3,2
  3356  0B64  2B66               	goto	u3221
  3357  0B65  2B67               	goto	u3220
  3358  0B66                     u3221:
  3359  0B66  2B54               	goto	l2598
  3360  0B67                     u3220:
  3361  0B67  2B83               	goto	l763
  3362  0B68                     l2602:
  3363  0B68  3001               	movlw	1
  3364  0B69  00A4               	movwf	??___xxtofl
  3365  0B6A  0824               	movf	??___xxtofl,w
  3366  0B6B  07A9               	addwf	___xxtofl@exp,f
  3367  0B6C                     l2604:
  3368  0B6C  3001               	movlw	1
  3369  0B6D  07AA               	addwf	___xxtofl@arg,f
  3370  0B6E  3000               	movlw	0
  3371  0B6F  1803               	skipnc
  3372  0B70  3001               	movlw	1
  3373  0B71  07AB               	addwf	___xxtofl@arg+1,f
  3374  0B72  3000               	movlw	0
  3375  0B73  1803               	skipnc
  3376  0B74  3001               	movlw	1
  3377  0B75  07AC               	addwf	___xxtofl@arg+2,f
  3378  0B76  3000               	movlw	0
  3379  0B77  1803               	skipnc
  3380  0B78  3001               	movlw	1
  3381  0B79  07AD               	addwf	___xxtofl@arg+3,f
  3382  0B7A                     l2606:
  3383  0B7A  3001               	movlw	1
  3384  0B7B                     u3235:
  3385  0B7B  1003               	clrc
  3386  0B7C  0CAD               	rrf	___xxtofl@arg+3,f
  3387  0B7D  0CAC               	rrf	___xxtofl@arg+2,f
  3388  0B7E  0CAB               	rrf	___xxtofl@arg+1,f
  3389  0B7F  0CAA               	rrf	___xxtofl@arg,f
  3390  0B80  3EFF               	addlw	-1
  3391  0B81  1D03               	skipz
  3392  0B82  2B7B               	goto	u3235
  3393  0B83                     l763:
  3394  0B83  30FF               	movlw	255
  3395  0B84  052D               	andwf	___xxtofl@arg+3,w
  3396  0B85  1D03               	btfss	3,2
  3397  0B86  2B88               	goto	u3241
  3398  0B87  2B89               	goto	u3240
  3399  0B88                     u3241:
  3400  0B88  2B68               	goto	l2602
  3401  0B89                     u3240:
  3402  0B89  2B95               	goto	l2610
  3403  0B8A                     l2608:
  3404  0B8A  3001               	movlw	1
  3405  0B8B  02A9               	subwf	___xxtofl@exp,f
  3406  0B8C  3001               	movlw	1
  3407  0B8D  00A4               	movwf	??___xxtofl
  3408  0B8E                     u3255:
  3409  0B8E  1003               	clrc
  3410  0B8F  0DAA               	rlf	___xxtofl@arg,f
  3411  0B90  0DAB               	rlf	___xxtofl@arg+1,f
  3412  0B91  0DAC               	rlf	___xxtofl@arg+2,f
  3413  0B92  0DAD               	rlf	___xxtofl@arg+3,f
  3414  0B93  0BA4               	decfsz	??___xxtofl,f
  3415  0B94  2B8E               	goto	u3255
  3416  0B95                     l2610:
  3417  0B95  1BAC               	btfsc	___xxtofl@arg+2,7
  3418  0B96  2B98               	goto	u3261
  3419  0B97  2B99               	goto	u3260
  3420  0B98                     u3261:
  3421  0B98  2B9F               	goto	l770
  3422  0B99                     u3260:
  3423  0B99                     l2612:
  3424  0B99  3002               	movlw	2
  3425  0B9A  0229               	subwf	___xxtofl@exp,w
  3426  0B9B  1803               	skipnc
  3427  0B9C  2B9E               	goto	u3271
  3428  0B9D  2B9F               	goto	u3270
  3429  0B9E                     u3271:
  3430  0B9E  2B8A               	goto	l2608
  3431  0B9F                     u3270:
  3432  0B9F                     l770:
  3433  0B9F  1829               	btfsc	___xxtofl@exp,0
  3434  0BA0  2BA2               	goto	u3281
  3435  0BA1  2BA3               	goto	u3280
  3436  0BA2                     u3281:
  3437  0BA2  2BAB               	goto	l771
  3438  0BA3                     u3280:
  3439  0BA3                     l2614:
  3440  0BA3  30FF               	movlw	255
  3441  0BA4  05AA               	andwf	___xxtofl@arg,f
  3442  0BA5  30FF               	movlw	255
  3443  0BA6  05AB               	andwf	___xxtofl@arg+1,f
  3444  0BA7  307F               	movlw	127
  3445  0BA8  05AC               	andwf	___xxtofl@arg+2,f
  3446  0BA9  30FF               	movlw	255
  3447  0BAA  05AD               	andwf	___xxtofl@arg+3,f
  3448  0BAB                     l771:
  3449  0BAB  1003               	clrc
  3450  0BAC  0CA9               	rrf	___xxtofl@exp,f
  3451  0BAD                     l2616:
  3452  0BAD  0829               	movf	___xxtofl@exp,w
  3453  0BAE  00A4               	movwf	??___xxtofl
  3454  0BAF  01A5               	clrf	??___xxtofl+1
  3455  0BB0  01A6               	clrf	??___xxtofl+2
  3456  0BB1  01A7               	clrf	??___xxtofl+3
  3457  0BB2  3018               	movlw	24
  3458  0BB3                     u3295:
  3459  0BB3  1003               	clrc
  3460  0BB4  0DA4               	rlf	??___xxtofl,f
  3461  0BB5  0DA5               	rlf	??___xxtofl+1,f
  3462  0BB6  0DA6               	rlf	??___xxtofl+2,f
  3463  0BB7  0DA7               	rlf	??___xxtofl+3,f
  3464  0BB8                     u3290:
  3465  0BB8  3EFF               	addlw	-1
  3466  0BB9  1D03               	skipz
  3467  0BBA  2BB3               	goto	u3295
  3468  0BBB  0824               	movf	??___xxtofl,w
  3469  0BBC  04AA               	iorwf	___xxtofl@arg,f
  3470  0BBD  0825               	movf	??___xxtofl+1,w
  3471  0BBE  04AB               	iorwf	___xxtofl@arg+1,f
  3472  0BBF  0826               	movf	??___xxtofl+2,w
  3473  0BC0  04AC               	iorwf	___xxtofl@arg+2,f
  3474  0BC1  0827               	movf	??___xxtofl+3,w
  3475  0BC2  04AD               	iorwf	___xxtofl@arg+3,f
  3476  0BC3                     l2618:
  3477  0BC3  0828               	movf	___xxtofl@sign,w
  3478  0BC4  1903               	btfsc	3,2
  3479  0BC5  2BC7               	goto	u3301
  3480  0BC6  2BC8               	goto	u3300
  3481  0BC7                     u3301:
  3482  0BC7  2BCD               	goto	l2624
  3483  0BC8                     u3300:
  3484  0BC8                     l2620:
  3485  0BC8  1FA3               	btfss	___xxtofl@val+3,7
  3486  0BC9  2BCB               	goto	u3311
  3487  0BCA  2BCC               	goto	u3310
  3488  0BCB                     u3311:
  3489  0BCB  2BCD               	goto	l2624
  3490  0BCC                     u3310:
  3491  0BCC                     l2622:
  3492  0BCC  17AD               	bsf	___xxtofl@arg+3,7
  3493  0BCD                     l2624:
  3494  0BCD  082D               	movf	___xxtofl@arg+3,w
  3495  0BCE  00A3               	movwf	?___xxtofl+3
  3496  0BCF  082C               	movf	___xxtofl@arg+2,w
  3497  0BD0  00A2               	movwf	?___xxtofl+2
  3498  0BD1  082B               	movf	___xxtofl@arg+1,w
  3499  0BD2  00A1               	movwf	?___xxtofl+1
  3500  0BD3  082A               	movf	___xxtofl@arg,w
  3501  0BD4  00A0               	movwf	?___xxtofl
  3502  0BD5                     l759:
  3503  0BD5  0008               	return
  3504  0BD6                     __end_of___xxtofl:
  3505                           
  3506                           	psect	text11
  3507  0A88                     __ptext11:	
  3508 ;; *************** function ___fltol *****************
  3509 ;; Defined at:
  3510 ;;		line 43 in file "C:\Program Files\Microchip\xc8\v2.35\pic\sources\c90\common\fltol.c"
  3511 ;; Parameters:    Size  Location     Type
  3512 ;;  f1              4    8[BANK1 ] unsigned char 
  3513 ;; Auto vars:     Size  Location     Type
  3514 ;;  exp1            1   79[BANK0 ] unsigned char 
  3515 ;;  sign1           1   78[BANK0 ] unsigned char 
  3516 ;; Return value:  Size  Location     Type
  3517 ;;                  4    8[BANK1 ] long 
  3518 ;; Registers used:
  3519 ;;		wreg, status,2, status,0
  3520 ;; Tracked objects:
  3521 ;;		On entry : 0/0
  3522 ;;		On exit  : 0/0
  3523 ;;		Unchanged: 0/0
  3524 ;; Data sizes:     COMMON   BANK0   BANK1   BANK3   BANK2
  3525 ;;      Params:         0       0       4       0       0
  3526 ;;      Locals:         0       2       0       0       0
  3527 ;;      Temps:          0       0       5       0       0
  3528 ;;      Totals:         0       2       9       0       0
  3529 ;;Total ram usage:       11 bytes
  3530 ;; Hardware stack levels used: 1
  3531 ;; Hardware stack levels required when called: 2
  3532 ;; This function calls:
  3533 ;;		Nothing
  3534 ;; This function is called by:
  3535 ;;		_map
  3536 ;; This function uses a non-reentrant model
  3537 ;;
  3538                           
  3539  0A88                     ___fltol:	
  3540                           ;psect for function ___fltol
  3541                           
  3542  0A88                     l2024:	
  3543                           ;incstack = 0
  3544                           ; Regs used in ___fltol: [wreg+status,2+status,0]
  3545                           
  3546  0A88  1003               	clrc
  3547  0A89  1683               	bsf	3,5	;RP0=1, select bank1
  3548  0A8A  1303               	bcf	3,6	;RP1=0, select bank1
  3549  0A8B  0D2A               	rlf	(___fltol@f1+2)^(0+128),w
  3550  0A8C  0D2B               	rlf	(___fltol@f1+3)^(0+128),w
  3551  0A8D  00AC               	movwf	??___fltol^(0+128)
  3552  0A8E  082C               	movf	??___fltol^(0+128),w
  3553  0A8F  1283               	bcf	3,5	;RP0=0, select bank0
  3554  0A90  1303               	bcf	3,6	;RP1=0, select bank0
  3555  0A91  00EF               	movwf	___fltol@exp1
  3556  0A92  086F               	movf	___fltol@exp1,w
  3557  0A93  1D03               	btfss	3,2
  3558  0A94  2A96               	goto	u1831
  3559  0A95  2A97               	goto	u1830
  3560  0A96                     u1831:
  3561  0A96  2AA2               	goto	l2030
  3562  0A97                     u1830:
  3563  0A97                     l2026:
  3564  0A97  3000               	movlw	0
  3565  0A98  1683               	bsf	3,5	;RP0=1, select bank1
  3566  0A99  1303               	bcf	3,6	;RP1=0, select bank1
  3567  0A9A  00AB               	movwf	(?___fltol+3)^(0+128)
  3568  0A9B  3000               	movlw	0
  3569  0A9C  00AA               	movwf	(?___fltol+2)^(0+128)
  3570  0A9D  3000               	movlw	0
  3571  0A9E  00A9               	movwf	(?___fltol+1)^(0+128)
  3572  0A9F  3000               	movlw	0
  3573  0AA0  00A8               	movwf	?___fltol^(0+128)
  3574  0AA1  2B19               	goto	l510
  3575  0AA2                     l2030:
  3576  0AA2  1683               	bsf	3,5	;RP0=1, select bank1
  3577  0AA3  1303               	bcf	3,6	;RP1=0, select bank1
  3578  0AA4  0828               	movf	___fltol@f1^(0+128),w
  3579  0AA5  00AC               	movwf	??___fltol^(0+128)
  3580  0AA6  0829               	movf	(___fltol@f1+1)^(0+128),w
  3581  0AA7  00AD               	movwf	(??___fltol^(0+128)+1)
  3582  0AA8  082A               	movf	(___fltol@f1+2)^(0+128),w
  3583  0AA9  00AE               	movwf	(??___fltol^(0+128)+2)
  3584  0AAA  082B               	movf	(___fltol@f1+3)^(0+128),w
  3585  0AAB  00AF               	movwf	(??___fltol^(0+128)+3)
  3586  0AAC  301F               	movlw	31
  3587  0AAD                     u1845:
  3588  0AAD  1003               	clrc
  3589  0AAE  0CAF               	rrf	(??___fltol^(0+128)+3),f
  3590  0AAF  0CAE               	rrf	(??___fltol^(0+128)+2),f
  3591  0AB0  0CAD               	rrf	(??___fltol^(0+128)+1),f
  3592  0AB1  0CAC               	rrf	??___fltol^(0+128),f
  3593  0AB2                     u1840:
  3594  0AB2  3EFF               	addlw	-1
  3595  0AB3  1D03               	skipz
  3596  0AB4  2AAD               	goto	u1845
  3597  0AB5  082C               	movf	??___fltol^(0+128),w
  3598  0AB6  00B0               	movwf	(??___fltol+4)^(0+128)
  3599  0AB7  0830               	movf	(??___fltol+4)^(0+128),w
  3600  0AB8  1283               	bcf	3,5	;RP0=0, select bank0
  3601  0AB9  1303               	bcf	3,6	;RP1=0, select bank0
  3602  0ABA  00EE               	movwf	___fltol@sign1
  3603  0ABB                     l2032:
  3604  0ABB  1683               	bsf	3,5	;RP0=1, select bank1
  3605  0ABC  1303               	bcf	3,6	;RP1=0, select bank1
  3606  0ABD  17AA               	bsf	(___fltol@f1^(0+128)+2),7
  3607  0ABE                     l2034:
  3608  0ABE  30FF               	movlw	255
  3609  0ABF  05A8               	andwf	___fltol@f1^(0+128),f
  3610  0AC0  30FF               	movlw	255
  3611  0AC1  05A9               	andwf	(___fltol@f1+1)^(0+128),f
  3612  0AC2  30FF               	movlw	255
  3613  0AC3  05AA               	andwf	(___fltol@f1+2)^(0+128),f
  3614  0AC4  3000               	movlw	0
  3615  0AC5  05AB               	andwf	(___fltol@f1+3)^(0+128),f
  3616  0AC6                     l2036:
  3617  0AC6  3096               	movlw	150
  3618  0AC7  1283               	bcf	3,5	;RP0=0, select bank0
  3619  0AC8  1303               	bcf	3,6	;RP1=0, select bank0
  3620  0AC9  02EF               	subwf	___fltol@exp1,f
  3621  0ACA                     l2038:
  3622  0ACA  1FEF               	btfss	___fltol@exp1,7
  3623  0ACB  2ACD               	goto	u1851
  3624  0ACC  2ACE               	goto	u1850
  3625  0ACD                     u1851:
  3626  0ACD  2AEC               	goto	l2048
  3627  0ACE                     u1850:
  3628  0ACE                     l2040:
  3629  0ACE  086F               	movf	___fltol@exp1,w
  3630  0ACF  3A80               	xorlw	128
  3631  0AD0  3E97               	addlw	151
  3632  0AD1  1803               	skipnc
  3633  0AD2  2AD4               	goto	u1861
  3634  0AD3  2AD5               	goto	u1860
  3635  0AD4                     u1861:
  3636  0AD4  2AD6               	goto	l2046
  3637  0AD5                     u1860:
  3638  0AD5  2A97               	goto	l2026
  3639  0AD6                     l2046:
  3640  0AD6  3001               	movlw	1
  3641  0AD7                     u1875:
  3642  0AD7  1003               	clrc
  3643  0AD8  1683               	bsf	3,5	;RP0=1, select bank1
  3644  0AD9  1303               	bcf	3,6	;RP1=0, select bank1
  3645  0ADA  0CAB               	rrf	(___fltol@f1+3)^(0+128),f
  3646  0ADB  0CAA               	rrf	(___fltol@f1+2)^(0+128),f
  3647  0ADC  0CA9               	rrf	(___fltol@f1+1)^(0+128),f
  3648  0ADD  0CA8               	rrf	___fltol@f1^(0+128),f
  3649  0ADE  3EFF               	addlw	-1
  3650  0ADF  1D03               	skipz
  3651  0AE0  2AD7               	goto	u1875
  3652  0AE1  3001               	movlw	1
  3653  0AE2  00AC               	movwf	??___fltol^(0+128)
  3654  0AE3  082C               	movf	??___fltol^(0+128),w
  3655  0AE4  1283               	bcf	3,5	;RP0=0, select bank0
  3656  0AE5  1303               	bcf	3,6	;RP1=0, select bank0
  3657  0AE6  07EF               	addwf	___fltol@exp1,f
  3658  0AE7  1D03               	btfss	3,2
  3659  0AE8  2AEA               	goto	u1881
  3660  0AE9  2AEB               	goto	u1880
  3661  0AEA                     u1881:
  3662  0AEA  2AD6               	goto	l2046
  3663  0AEB                     u1880:
  3664  0AEB  2B07               	goto	l2056
  3665  0AEC                     l2048:
  3666  0AEC  3020               	movlw	32
  3667  0AED  026F               	subwf	___fltol@exp1,w
  3668  0AEE  1C03               	skipc
  3669  0AEF  2AF1               	goto	u1891
  3670  0AF0  2AF2               	goto	u1890
  3671  0AF1                     u1891:
  3672  0AF1  2B02               	goto	l517
  3673  0AF2                     u1890:
  3674  0AF2  2A97               	goto	l2026
  3675  0AF3                     l2054:
  3676  0AF3  3001               	movlw	1
  3677  0AF4  1683               	bsf	3,5	;RP0=1, select bank1
  3678  0AF5  1303               	bcf	3,6	;RP1=0, select bank1
  3679  0AF6  00AC               	movwf	??___fltol^(0+128)
  3680  0AF7                     u1905:
  3681  0AF7  1003               	clrc
  3682  0AF8  0DA8               	rlf	___fltol@f1^(0+128),f
  3683  0AF9  0DA9               	rlf	(___fltol@f1+1)^(0+128),f
  3684  0AFA  0DAA               	rlf	(___fltol@f1+2)^(0+128),f
  3685  0AFB  0DAB               	rlf	(___fltol@f1+3)^(0+128),f
  3686  0AFC  0BAC               	decfsz	??___fltol^(0+128),f
  3687  0AFD  2AF7               	goto	u1905
  3688  0AFE  3001               	movlw	1
  3689  0AFF  1283               	bcf	3,5	;RP0=0, select bank0
  3690  0B00  1303               	bcf	3,6	;RP1=0, select bank0
  3691  0B01  02EF               	subwf	___fltol@exp1,f
  3692  0B02                     l517:
  3693  0B02  086F               	movf	___fltol@exp1,w
  3694  0B03  1D03               	btfss	3,2
  3695  0B04  2B06               	goto	u1911
  3696  0B05  2B07               	goto	u1910
  3697  0B06                     u1911:
  3698  0B06  2AF3               	goto	l2054
  3699  0B07                     u1910:
  3700  0B07                     l2056:
  3701  0B07  086E               	movf	___fltol@sign1,w
  3702  0B08  1903               	btfsc	3,2
  3703  0B09  2B0B               	goto	u1921
  3704  0B0A  2B0C               	goto	u1920
  3705  0B0B                     u1921:
  3706  0B0B  2B19               	goto	l520
  3707  0B0C                     u1920:
  3708  0B0C                     l2058:
  3709  0B0C  1683               	bsf	3,5	;RP0=1, select bank1
  3710  0B0D  1303               	bcf	3,6	;RP1=0, select bank1
  3711  0B0E  09A8               	comf	___fltol@f1^(0+128),f
  3712  0B0F  09A9               	comf	(___fltol@f1+1)^(0+128),f
  3713  0B10  09AA               	comf	(___fltol@f1+2)^(0+128),f
  3714  0B11  09AB               	comf	(___fltol@f1+3)^(0+128),f
  3715  0B12  0AA8               	incf	___fltol@f1^(0+128),f
  3716  0B13  1903               	skipnz
  3717  0B14  0AA9               	incf	(___fltol@f1+1)^(0+128),f
  3718  0B15  1903               	skipnz
  3719  0B16  0AAA               	incf	(___fltol@f1+2)^(0+128),f
  3720  0B17  1903               	skipnz
  3721  0B18  0AAB               	incf	(___fltol@f1+3)^(0+128),f
  3722  0B19                     l520:
  3723  0B19                     l510:
  3724  0B19  0008               	return
  3725  0B1A                     __end_of___fltol:
  3726                           
  3727                           	psect	text12
  3728  038A                     __ptext12:	
  3729 ;; *************** function ___flmul *****************
  3730 ;; Defined at:
  3731 ;;		line 8 in file "C:\Program Files\Microchip\xc8\v2.35\pic\sources\c90\common\sprcmul.c"
  3732 ;; Parameters:    Size  Location     Type
  3733 ;;  b               4   40[BANK0 ] long 
  3734 ;;  a               4   44[BANK0 ] long 
  3735 ;; Auto vars:     Size  Location     Type
  3736 ;;  prod            4   60[BANK0 ] struct .
  3737 ;;  grs             4   54[BANK0 ] unsigned long 
  3738 ;;  temp            2   64[BANK0 ] struct .
  3739 ;;  bexp            1   59[BANK0 ] unsigned char 
  3740 ;;  aexp            1   58[BANK0 ] unsigned char 
  3741 ;;  sign            1   53[BANK0 ] unsigned char 
  3742 ;; Return value:  Size  Location     Type
  3743 ;;                  4   40[BANK0 ] unsigned char 
  3744 ;; Registers used:
  3745 ;;		wreg, status,2, status,0, btemp+1, pclath, cstack
  3746 ;; Tracked objects:
  3747 ;;		On entry : 0/0
  3748 ;;		On exit  : 0/0
  3749 ;;		Unchanged: 0/0
  3750 ;; Data sizes:     COMMON   BANK0   BANK1   BANK3   BANK2
  3751 ;;      Params:         0       8       0       0       0
  3752 ;;      Locals:         0      13       0       0       0
  3753 ;;      Temps:          0       5       0       0       0
  3754 ;;      Totals:         0      26       0       0       0
  3755 ;;Total ram usage:       26 bytes
  3756 ;; Hardware stack levels used: 1
  3757 ;; Hardware stack levels required when called: 3
  3758 ;; This function calls:
  3759 ;;		__Umul8_16
  3760 ;; This function is called by:
  3761 ;;		_map
  3762 ;; This function uses a non-reentrant model
  3763 ;;
  3764                           
  3765  038A                     ___flmul:	
  3766                           ;psect for function ___flmul
  3767                           
  3768  038A                     l2444:	
  3769                           ;incstack = 0
  3770                           ; Regs used in ___flmul: [wreg+status,2+status,0+btemp+1+pclath+cstack]
  3771                           
  3772  038A  1283               	bcf	3,5	;RP0=0, select bank0
  3773  038B  1303               	bcf	3,6	;RP1=0, select bank0
  3774  038C  084B               	movf	___flmul@b+3,w
  3775  038D  3980               	andlw	128
  3776  038E  00D0               	movwf	??___flmul
  3777  038F  0850               	movf	??___flmul,w
  3778  0390  00D5               	movwf	___flmul@sign
  3779  0391                     l2446:
  3780  0391  084B               	movf	___flmul@b+3,w
  3781  0392  00D0               	movwf	??___flmul
  3782  0393  0750               	addwf	??___flmul,w
  3783  0394  00D1               	movwf	??___flmul+1
  3784  0395  0851               	movf	??___flmul+1,w
  3785  0396  00DB               	movwf	___flmul@bexp
  3786  0397                     l2448:
  3787  0397  1FCA               	btfss	___flmul@b+2,7
  3788  0398  2B9A               	goto	u2811
  3789  0399  2B9B               	goto	u2810
  3790  039A                     u2811:
  3791  039A  2B9C               	goto	l2452
  3792  039B                     u2810:
  3793  039B                     l2450:
  3794  039B  145B               	bsf	___flmul@bexp,0
  3795  039C                     l2452:
  3796  039C  085B               	movf	___flmul@bexp,w
  3797  039D  1903               	btfsc	3,2
  3798  039E  2BA0               	goto	u2821
  3799  039F  2BA1               	goto	u2820
  3800  03A0                     u2821:
  3801  03A0  2BB0               	goto	l2460
  3802  03A1                     u2820:
  3803  03A1                     l2454:
  3804  03A1  0A5B               	incf	___flmul@bexp,w
  3805  03A2  1D03               	btfss	3,2
  3806  03A3  2BA5               	goto	u2831
  3807  03A4  2BA6               	goto	u2830
  3808  03A5                     u2831:
  3809  03A5  2BAE               	goto	l2458
  3810  03A6                     u2830:
  3811  03A6                     l2456:
  3812  03A6  3000               	movlw	0
  3813  03A7  00CB               	movwf	___flmul@b+3
  3814  03A8  3000               	movlw	0
  3815  03A9  00CA               	movwf	___flmul@b+2
  3816  03AA  3000               	movlw	0
  3817  03AB  00C9               	movwf	___flmul@b+1
  3818  03AC  3000               	movlw	0
  3819  03AD  00C8               	movwf	___flmul@b
  3820  03AE                     l2458:
  3821  03AE  17CA               	bsf	___flmul@b+2,7
  3822  03AF  2BB8               	goto	l2462
  3823  03B0                     l2460:
  3824  03B0  3000               	movlw	0
  3825  03B1  00CB               	movwf	___flmul@b+3
  3826  03B2  3000               	movlw	0
  3827  03B3  00CA               	movwf	___flmul@b+2
  3828  03B4  3000               	movlw	0
  3829  03B5  00C9               	movwf	___flmul@b+1
  3830  03B6  3000               	movlw	0
  3831  03B7  00C8               	movwf	___flmul@b
  3832  03B8                     l2462:
  3833  03B8  084F               	movf	___flmul@a+3,w
  3834  03B9  3980               	andlw	128
  3835  03BA  00D0               	movwf	??___flmul
  3836  03BB  0850               	movf	??___flmul,w
  3837  03BC  06D5               	xorwf	___flmul@sign,f
  3838  03BD                     l2464:
  3839  03BD  084F               	movf	___flmul@a+3,w
  3840  03BE  00D0               	movwf	??___flmul
  3841  03BF  0750               	addwf	??___flmul,w
  3842  03C0  00D1               	movwf	??___flmul+1
  3843  03C1  0851               	movf	??___flmul+1,w
  3844  03C2  00DA               	movwf	___flmul@aexp
  3845  03C3                     l2466:
  3846  03C3  1FCE               	btfss	___flmul@a+2,7
  3847  03C4  2BC6               	goto	u2841
  3848  03C5  2BC7               	goto	u2840
  3849  03C6                     u2841:
  3850  03C6  2BC8               	goto	l2470
  3851  03C7                     u2840:
  3852  03C7                     l2468:
  3853  03C7  145A               	bsf	___flmul@aexp,0
  3854  03C8                     l2470:
  3855  03C8  085A               	movf	___flmul@aexp,w
  3856  03C9  1903               	btfsc	3,2
  3857  03CA  2BCC               	goto	u2851
  3858  03CB  2BCD               	goto	u2850
  3859  03CC                     u2851:
  3860  03CC  2BDC               	goto	l2478
  3861  03CD                     u2850:
  3862  03CD                     l2472:
  3863  03CD  0A5A               	incf	___flmul@aexp,w
  3864  03CE  1D03               	btfss	3,2
  3865  03CF  2BD1               	goto	u2861
  3866  03D0  2BD2               	goto	u2860
  3867  03D1                     u2861:
  3868  03D1  2BDA               	goto	l2476
  3869  03D2                     u2860:
  3870  03D2                     l2474:
  3871  03D2  3000               	movlw	0
  3872  03D3  00CF               	movwf	___flmul@a+3
  3873  03D4  3000               	movlw	0
  3874  03D5  00CE               	movwf	___flmul@a+2
  3875  03D6  3000               	movlw	0
  3876  03D7  00CD               	movwf	___flmul@a+1
  3877  03D8  3000               	movlw	0
  3878  03D9  00CC               	movwf	___flmul@a
  3879  03DA                     l2476:
  3880  03DA  17CE               	bsf	___flmul@a+2,7
  3881  03DB  2BE4               	goto	l2480
  3882  03DC                     l2478:
  3883  03DC  3000               	movlw	0
  3884  03DD  00CF               	movwf	___flmul@a+3
  3885  03DE  3000               	movlw	0
  3886  03DF  00CE               	movwf	___flmul@a+2
  3887  03E0  3000               	movlw	0
  3888  03E1  00CD               	movwf	___flmul@a+1
  3889  03E2  3000               	movlw	0
  3890  03E3  00CC               	movwf	___flmul@a
  3891  03E4                     l2480:
  3892  03E4  085A               	movf	___flmul@aexp,w
  3893  03E5  1903               	btfsc	3,2
  3894  03E6  2BE8               	goto	u2871
  3895  03E7  2BE9               	goto	u2870
  3896  03E8                     u2871:
  3897  03E8  2BEE               	goto	l2484
  3898  03E9                     u2870:
  3899  03E9                     l2482:
  3900  03E9  085B               	movf	___flmul@bexp,w
  3901  03EA  1D03               	btfss	3,2
  3902  03EB  2BED               	goto	u2881
  3903  03EC  2BEE               	goto	u2880
  3904  03ED                     u2881:
  3905  03ED  2BF7               	goto	l2488
  3906  03EE                     u2880:
  3907  03EE                     l2484:
  3908  03EE  3000               	movlw	0
  3909  03EF  00CB               	movwf	?___flmul+3
  3910  03F0  3000               	movlw	0
  3911  03F1  00CA               	movwf	?___flmul+2
  3912  03F2  3000               	movlw	0
  3913  03F3  00C9               	movwf	?___flmul+1
  3914  03F4  3000               	movlw	0
  3915  03F5  00C8               	movwf	?___flmul
  3916  03F6  2EEA               	goto	l713
  3917  03F7                     l2488:
  3918  03F7  0848               	movf	___flmul@b,w
  3919  03F8  00D0               	movwf	??___flmul
  3920  03F9  0850               	movf	??___flmul,w
  3921  03FA  00A0               	movwf	__Umul8_16@multiplicand
  3922  03FB  084E               	movf	___flmul@a+2,w
  3923  03FC  120A  118A  27D5  120A  118A  	fcall	__Umul8_16
  3924  0401  1283               	bcf	3,5	;RP0=0, select bank0
  3925  0402  1303               	bcf	3,6	;RP1=0, select bank0
  3926  0403  0821               	movf	?__Umul8_16+1,w
  3927  0404  00E1               	movwf	___flmul@temp+1
  3928  0405  0820               	movf	?__Umul8_16,w
  3929  0406  00E0               	movwf	___flmul@temp
  3930  0407                     l2490:
  3931  0407  0860               	movf	___flmul@temp,w
  3932  0408  00D0               	movwf	??___flmul
  3933  0409  01D1               	clrf	??___flmul+1
  3934  040A  01D2               	clrf	??___flmul+2
  3935  040B  01D3               	clrf	??___flmul+3
  3936  040C  0853               	movf	??___flmul+3,w
  3937  040D  00D9               	movwf	___flmul@grs+3
  3938  040E  0852               	movf	??___flmul+2,w
  3939  040F  00D8               	movwf	___flmul@grs+2
  3940  0410  0851               	movf	??___flmul+1,w
  3941  0411  00D7               	movwf	___flmul@grs+1
  3942  0412  0850               	movf	??___flmul,w
  3943  0413  00D6               	movwf	___flmul@grs
  3944  0414                     l2492:
  3945  0414  0861               	movf	___flmul@temp+1,w
  3946  0415  00D0               	movwf	??___flmul
  3947  0416  01D1               	clrf	??___flmul+1
  3948  0417  01D2               	clrf	??___flmul+2
  3949  0418  01D3               	clrf	??___flmul+3
  3950  0419  0853               	movf	??___flmul+3,w
  3951  041A  00DF               	movwf	___flmul@prod+3
  3952  041B  0852               	movf	??___flmul+2,w
  3953  041C  00DE               	movwf	___flmul@prod+2
  3954  041D  0851               	movf	??___flmul+1,w
  3955  041E  00DD               	movwf	___flmul@prod+1
  3956  041F  0850               	movf	??___flmul,w
  3957  0420  00DC               	movwf	___flmul@prod
  3958  0421  0849               	movf	___flmul@b+1,w
  3959  0422  00D0               	movwf	??___flmul
  3960  0423  0850               	movf	??___flmul,w
  3961  0424  00A0               	movwf	__Umul8_16@multiplicand
  3962  0425  084D               	movf	___flmul@a+1,w
  3963  0426  120A  118A  27D5  120A  118A  	fcall	__Umul8_16
  3964  042B  1283               	bcf	3,5	;RP0=0, select bank0
  3965  042C  1303               	bcf	3,6	;RP1=0, select bank0
  3966  042D  0821               	movf	?__Umul8_16+1,w
  3967  042E  00E1               	movwf	___flmul@temp+1
  3968  042F  0820               	movf	?__Umul8_16,w
  3969  0430  00E0               	movwf	___flmul@temp
  3970  0431                     l2494:
  3971  0431  0860               	movf	___flmul@temp,w
  3972  0432  00D0               	movwf	??___flmul
  3973  0433  01D1               	clrf	??___flmul+1
  3974  0434  01D2               	clrf	??___flmul+2
  3975  0435  01D3               	clrf	??___flmul+3
  3976  0436  0850               	movf	??___flmul,w
  3977  0437  07D6               	addwf	___flmul@grs,f
  3978  0438  0851               	movf	??___flmul+1,w
  3979  0439  1103               	clrz
  3980  043A  1803               	skipnc
  3981  043B  3E01               	addlw	1
  3982  043C  1903               	skipnz
  3983  043D  2C3F               	goto	u2891
  3984  043E  07D7               	addwf	___flmul@grs+1,f
  3985  043F                     u2891:
  3986  043F  0852               	movf	??___flmul+2,w
  3987  0440  1103               	clrz
  3988  0441  1803               	skipnc
  3989  0442  3E01               	addlw	1
  3990  0443  1903               	skipnz
  3991  0444  2C46               	goto	u2892
  3992  0445  07D8               	addwf	___flmul@grs+2,f
  3993  0446                     u2892:
  3994  0446  0853               	movf	??___flmul+3,w
  3995  0447  1103               	clrz
  3996  0448  1803               	skipnc
  3997  0449  3E01               	addlw	1
  3998  044A  1903               	skipnz
  3999  044B  2C4D               	goto	u2893
  4000  044C  07D9               	addwf	___flmul@grs+3,f
  4001  044D                     u2893:
  4002  044D                     l2496:
  4003  044D  0861               	movf	___flmul@temp+1,w
  4004  044E  00D0               	movwf	??___flmul
  4005  044F  01D1               	clrf	??___flmul+1
  4006  0450  01D2               	clrf	??___flmul+2
  4007  0451  01D3               	clrf	??___flmul+3
  4008  0452  0850               	movf	??___flmul,w
  4009  0453  07DC               	addwf	___flmul@prod,f
  4010  0454  0851               	movf	??___flmul+1,w
  4011  0455  1103               	clrz
  4012  0456  1803               	skipnc
  4013  0457  3E01               	addlw	1
  4014  0458  1903               	skipnz
  4015  0459  2C5B               	goto	u2901
  4016  045A  07DD               	addwf	___flmul@prod+1,f
  4017  045B                     u2901:
  4018  045B  0852               	movf	??___flmul+2,w
  4019  045C  1103               	clrz
  4020  045D  1803               	skipnc
  4021  045E  3E01               	addlw	1
  4022  045F  1903               	skipnz
  4023  0460  2C62               	goto	u2902
  4024  0461  07DE               	addwf	___flmul@prod+2,f
  4025  0462                     u2902:
  4026  0462  0853               	movf	??___flmul+3,w
  4027  0463  1103               	clrz
  4028  0464  1803               	skipnc
  4029  0465  3E01               	addlw	1
  4030  0466  1903               	skipnz
  4031  0467  2C69               	goto	u2903
  4032  0468  07DF               	addwf	___flmul@prod+3,f
  4033  0469                     u2903:
  4034  0469  084A               	movf	___flmul@b+2,w
  4035  046A  00D0               	movwf	??___flmul
  4036  046B  0850               	movf	??___flmul,w
  4037  046C  00A0               	movwf	__Umul8_16@multiplicand
  4038  046D  084C               	movf	___flmul@a,w
  4039  046E  120A  118A  27D5  120A  118A  	fcall	__Umul8_16
  4040  0473  1283               	bcf	3,5	;RP0=0, select bank0
  4041  0474  1303               	bcf	3,6	;RP1=0, select bank0
  4042  0475  0821               	movf	?__Umul8_16+1,w
  4043  0476  00E1               	movwf	___flmul@temp+1
  4044  0477  0820               	movf	?__Umul8_16,w
  4045  0478  00E0               	movwf	___flmul@temp
  4046  0479                     l2498:
  4047  0479  0860               	movf	___flmul@temp,w
  4048  047A  00D0               	movwf	??___flmul
  4049  047B  01D1               	clrf	??___flmul+1
  4050  047C  01D2               	clrf	??___flmul+2
  4051  047D  01D3               	clrf	??___flmul+3
  4052  047E  0850               	movf	??___flmul,w
  4053  047F  07D6               	addwf	___flmul@grs,f
  4054  0480  0851               	movf	??___flmul+1,w
  4055  0481  1103               	clrz
  4056  0482  1803               	skipnc
  4057  0483  3E01               	addlw	1
  4058  0484  1903               	skipnz
  4059  0485  2C87               	goto	u2911
  4060  0486  07D7               	addwf	___flmul@grs+1,f
  4061  0487                     u2911:
  4062  0487  0852               	movf	??___flmul+2,w
  4063  0488  1103               	clrz
  4064  0489  1803               	skipnc
  4065  048A  3E01               	addlw	1
  4066  048B  1903               	skipnz
  4067  048C  2C8E               	goto	u2912
  4068  048D  07D8               	addwf	___flmul@grs+2,f
  4069  048E                     u2912:
  4070  048E  0853               	movf	??___flmul+3,w
  4071  048F  1103               	clrz
  4072  0490  1803               	skipnc
  4073  0491  3E01               	addlw	1
  4074  0492  1903               	skipnz
  4075  0493  2C95               	goto	u2913
  4076  0494  07D9               	addwf	___flmul@grs+3,f
  4077  0495                     u2913:
  4078  0495                     l2500:
  4079  0495  0861               	movf	___flmul@temp+1,w
  4080  0496  00D0               	movwf	??___flmul
  4081  0497  01D1               	clrf	??___flmul+1
  4082  0498  01D2               	clrf	??___flmul+2
  4083  0499  01D3               	clrf	??___flmul+3
  4084  049A  0850               	movf	??___flmul,w
  4085  049B  07DC               	addwf	___flmul@prod,f
  4086  049C  0851               	movf	??___flmul+1,w
  4087  049D  1103               	clrz
  4088  049E  1803               	skipnc
  4089  049F  3E01               	addlw	1
  4090  04A0  1903               	skipnz
  4091  04A1  2CA3               	goto	u2921
  4092  04A2  07DD               	addwf	___flmul@prod+1,f
  4093  04A3                     u2921:
  4094  04A3  0852               	movf	??___flmul+2,w
  4095  04A4  1103               	clrz
  4096  04A5  1803               	skipnc
  4097  04A6  3E01               	addlw	1
  4098  04A7  1903               	skipnz
  4099  04A8  2CAA               	goto	u2922
  4100  04A9  07DE               	addwf	___flmul@prod+2,f
  4101  04AA                     u2922:
  4102  04AA  0853               	movf	??___flmul+3,w
  4103  04AB  1103               	clrz
  4104  04AC  1803               	skipnc
  4105  04AD  3E01               	addlw	1
  4106  04AE  1903               	skipnz
  4107  04AF  2CB1               	goto	u2923
  4108  04B0  07DF               	addwf	___flmul@prod+3,f
  4109  04B1                     u2923:
  4110  04B1                     l2502:
  4111  04B1  3008               	movlw	8
  4112  04B2  00D0               	movwf	??___flmul
  4113  04B3                     u2935:
  4114  04B3  1003               	clrc
  4115  04B4  0DD6               	rlf	___flmul@grs,f
  4116  04B5  0DD7               	rlf	___flmul@grs+1,f
  4117  04B6  0DD8               	rlf	___flmul@grs+2,f
  4118  04B7  0DD9               	rlf	___flmul@grs+3,f
  4119  04B8  0BD0               	decfsz	??___flmul,f
  4120  04B9  2CB3               	goto	u2935
  4121  04BA                     l2504:
  4122  04BA  0849               	movf	___flmul@b+1,w
  4123  04BB  00D0               	movwf	??___flmul
  4124  04BC  0850               	movf	??___flmul,w
  4125  04BD  00A0               	movwf	__Umul8_16@multiplicand
  4126  04BE  084C               	movf	___flmul@a,w
  4127  04BF  120A  118A  27D5  120A  118A  	fcall	__Umul8_16
  4128  04C4  1283               	bcf	3,5	;RP0=0, select bank0
  4129  04C5  1303               	bcf	3,6	;RP1=0, select bank0
  4130  04C6  0821               	movf	?__Umul8_16+1,w
  4131  04C7  00E1               	movwf	___flmul@temp+1
  4132  04C8  0820               	movf	?__Umul8_16,w
  4133  04C9  00E0               	movwf	___flmul@temp
  4134  04CA                     l2506:
  4135  04CA  0860               	movf	___flmul@temp,w
  4136  04CB  00D0               	movwf	??___flmul
  4137  04CC  0861               	movf	___flmul@temp+1,w
  4138  04CD  00D1               	movwf	??___flmul+1
  4139  04CE  01D2               	clrf	??___flmul+2
  4140  04CF  01D3               	clrf	??___flmul+3
  4141  04D0  0850               	movf	??___flmul,w
  4142  04D1  07D6               	addwf	___flmul@grs,f
  4143  04D2  0851               	movf	??___flmul+1,w
  4144  04D3  1103               	clrz
  4145  04D4  1803               	skipnc
  4146  04D5  3E01               	addlw	1
  4147  04D6  1903               	skipnz
  4148  04D7  2CD9               	goto	u2941
  4149  04D8  07D7               	addwf	___flmul@grs+1,f
  4150  04D9                     u2941:
  4151  04D9  0852               	movf	??___flmul+2,w
  4152  04DA  1103               	clrz
  4153  04DB  1803               	skipnc
  4154  04DC  3E01               	addlw	1
  4155  04DD  1903               	skipnz
  4156  04DE  2CE0               	goto	u2942
  4157  04DF  07D8               	addwf	___flmul@grs+2,f
  4158  04E0                     u2942:
  4159  04E0  0853               	movf	??___flmul+3,w
  4160  04E1  1103               	clrz
  4161  04E2  1803               	skipnc
  4162  04E3  3E01               	addlw	1
  4163  04E4  1903               	skipnz
  4164  04E5  2CE7               	goto	u2943
  4165  04E6  07D9               	addwf	___flmul@grs+3,f
  4166  04E7                     u2943:
  4167  04E7                     l2508:
  4168  04E7  0848               	movf	___flmul@b,w
  4169  04E8  00D0               	movwf	??___flmul
  4170  04E9  0850               	movf	??___flmul,w
  4171  04EA  00A0               	movwf	__Umul8_16@multiplicand
  4172  04EB  084D               	movf	___flmul@a+1,w
  4173  04EC  120A  118A  27D5  120A  118A  	fcall	__Umul8_16
  4174  04F1  1283               	bcf	3,5	;RP0=0, select bank0
  4175  04F2  1303               	bcf	3,6	;RP1=0, select bank0
  4176  04F3  0821               	movf	?__Umul8_16+1,w
  4177  04F4  00E1               	movwf	___flmul@temp+1
  4178  04F5  0820               	movf	?__Umul8_16,w
  4179  04F6  00E0               	movwf	___flmul@temp
  4180  04F7                     l2510:
  4181  04F7  0860               	movf	___flmul@temp,w
  4182  04F8  00D0               	movwf	??___flmul
  4183  04F9  0861               	movf	___flmul@temp+1,w
  4184  04FA  00D1               	movwf	??___flmul+1
  4185  04FB  01D2               	clrf	??___flmul+2
  4186  04FC  01D3               	clrf	??___flmul+3
  4187  04FD  0850               	movf	??___flmul,w
  4188  04FE  07D6               	addwf	___flmul@grs,f
  4189  04FF  0851               	movf	??___flmul+1,w
  4190  0500  1103               	clrz
  4191  0501  1803               	skipnc
  4192  0502  3E01               	addlw	1
  4193  0503  1903               	skipnz
  4194  0504  2D06               	goto	u2951
  4195  0505  07D7               	addwf	___flmul@grs+1,f
  4196  0506                     u2951:
  4197  0506  0852               	movf	??___flmul+2,w
  4198  0507  1103               	clrz
  4199  0508  1803               	skipnc
  4200  0509  3E01               	addlw	1
  4201  050A  1903               	skipnz
  4202  050B  2D0D               	goto	u2952
  4203  050C  07D8               	addwf	___flmul@grs+2,f
  4204  050D                     u2952:
  4205  050D  0853               	movf	??___flmul+3,w
  4206  050E  1103               	clrz
  4207  050F  1803               	skipnc
  4208  0510  3E01               	addlw	1
  4209  0511  1903               	skipnz
  4210  0512  2D14               	goto	u2953
  4211  0513  07D9               	addwf	___flmul@grs+3,f
  4212  0514                     u2953:
  4213  0514                     l2512:
  4214  0514  3008               	movlw	8
  4215  0515  00D0               	movwf	??___flmul
  4216  0516                     u2965:
  4217  0516  1003               	clrc
  4218  0517  0DD6               	rlf	___flmul@grs,f
  4219  0518  0DD7               	rlf	___flmul@grs+1,f
  4220  0519  0DD8               	rlf	___flmul@grs+2,f
  4221  051A  0DD9               	rlf	___flmul@grs+3,f
  4222  051B  0BD0               	decfsz	??___flmul,f
  4223  051C  2D16               	goto	u2965
  4224  051D  0848               	movf	___flmul@b,w
  4225  051E  00D0               	movwf	??___flmul
  4226  051F  0850               	movf	??___flmul,w
  4227  0520  00A0               	movwf	__Umul8_16@multiplicand
  4228  0521  084C               	movf	___flmul@a,w
  4229  0522  120A  118A  27D5  120A  118A  	fcall	__Umul8_16
  4230  0527  1283               	bcf	3,5	;RP0=0, select bank0
  4231  0528  1303               	bcf	3,6	;RP1=0, select bank0
  4232  0529  0821               	movf	?__Umul8_16+1,w
  4233  052A  00E1               	movwf	___flmul@temp+1
  4234  052B  0820               	movf	?__Umul8_16,w
  4235  052C  00E0               	movwf	___flmul@temp
  4236  052D                     l2514:
  4237  052D  0860               	movf	___flmul@temp,w
  4238  052E  00D0               	movwf	??___flmul
  4239  052F  0861               	movf	___flmul@temp+1,w
  4240  0530  00D1               	movwf	??___flmul+1
  4241  0531  01D2               	clrf	??___flmul+2
  4242  0532  01D3               	clrf	??___flmul+3
  4243  0533  0850               	movf	??___flmul,w
  4244  0534  07D6               	addwf	___flmul@grs,f
  4245  0535  0851               	movf	??___flmul+1,w
  4246  0536  1103               	clrz
  4247  0537  1803               	skipnc
  4248  0538  3E01               	addlw	1
  4249  0539  1903               	skipnz
  4250  053A  2D3C               	goto	u2971
  4251  053B  07D7               	addwf	___flmul@grs+1,f
  4252  053C                     u2971:
  4253  053C  0852               	movf	??___flmul+2,w
  4254  053D  1103               	clrz
  4255  053E  1803               	skipnc
  4256  053F  3E01               	addlw	1
  4257  0540  1903               	skipnz
  4258  0541  2D43               	goto	u2972
  4259  0542  07D8               	addwf	___flmul@grs+2,f
  4260  0543                     u2972:
  4261  0543  0853               	movf	??___flmul+3,w
  4262  0544  1103               	clrz
  4263  0545  1803               	skipnc
  4264  0546  3E01               	addlw	1
  4265  0547  1903               	skipnz
  4266  0548  2D4A               	goto	u2973
  4267  0549  07D9               	addwf	___flmul@grs+3,f
  4268  054A                     u2973:
  4269  054A                     l2516:
  4270  054A  0849               	movf	___flmul@b+1,w
  4271  054B  00D0               	movwf	??___flmul
  4272  054C  0850               	movf	??___flmul,w
  4273  054D  00A0               	movwf	__Umul8_16@multiplicand
  4274  054E  084E               	movf	___flmul@a+2,w
  4275  054F  120A  118A  27D5  120A  118A  	fcall	__Umul8_16
  4276  0554  1283               	bcf	3,5	;RP0=0, select bank0
  4277  0555  1303               	bcf	3,6	;RP1=0, select bank0
  4278  0556  0821               	movf	?__Umul8_16+1,w
  4279  0557  00E1               	movwf	___flmul@temp+1
  4280  0558  0820               	movf	?__Umul8_16,w
  4281  0559  00E0               	movwf	___flmul@temp
  4282  055A  0860               	movf	___flmul@temp,w
  4283  055B  00D0               	movwf	??___flmul
  4284  055C  0861               	movf	___flmul@temp+1,w
  4285  055D  00D1               	movwf	??___flmul+1
  4286  055E  01D2               	clrf	??___flmul+2
  4287  055F  01D3               	clrf	??___flmul+3
  4288  0560  0850               	movf	??___flmul,w
  4289  0561  07DC               	addwf	___flmul@prod,f
  4290  0562  0851               	movf	??___flmul+1,w
  4291  0563  1103               	clrz
  4292  0564  1803               	skipnc
  4293  0565  3E01               	addlw	1
  4294  0566  1903               	skipnz
  4295  0567  2D69               	goto	u2981
  4296  0568  07DD               	addwf	___flmul@prod+1,f
  4297  0569                     u2981:
  4298  0569  0852               	movf	??___flmul+2,w
  4299  056A  1103               	clrz
  4300  056B  1803               	skipnc
  4301  056C  3E01               	addlw	1
  4302  056D  1903               	skipnz
  4303  056E  2D70               	goto	u2982
  4304  056F  07DE               	addwf	___flmul@prod+2,f
  4305  0570                     u2982:
  4306  0570  0853               	movf	??___flmul+3,w
  4307  0571  1103               	clrz
  4308  0572  1803               	skipnc
  4309  0573  3E01               	addlw	1
  4310  0574  1903               	skipnz
  4311  0575  2D77               	goto	u2983
  4312  0576  07DF               	addwf	___flmul@prod+3,f
  4313  0577                     u2983:
  4314  0577                     l2518:
  4315  0577  084A               	movf	___flmul@b+2,w
  4316  0578  00D0               	movwf	??___flmul
  4317  0579  0850               	movf	??___flmul,w
  4318  057A  00A0               	movwf	__Umul8_16@multiplicand
  4319  057B  084D               	movf	___flmul@a+1,w
  4320  057C  120A  118A  27D5  120A  118A  	fcall	__Umul8_16
  4321  0581  1283               	bcf	3,5	;RP0=0, select bank0
  4322  0582  1303               	bcf	3,6	;RP1=0, select bank0
  4323  0583  0821               	movf	?__Umul8_16+1,w
  4324  0584  00E1               	movwf	___flmul@temp+1
  4325  0585  0820               	movf	?__Umul8_16,w
  4326  0586  00E0               	movwf	___flmul@temp
  4327  0587                     l2520:
  4328  0587  0860               	movf	___flmul@temp,w
  4329  0588  00D0               	movwf	??___flmul
  4330  0589  0861               	movf	___flmul@temp+1,w
  4331  058A  00D1               	movwf	??___flmul+1
  4332  058B  01D2               	clrf	??___flmul+2
  4333  058C  01D3               	clrf	??___flmul+3
  4334  058D  0850               	movf	??___flmul,w
  4335  058E  07DC               	addwf	___flmul@prod,f
  4336  058F  0851               	movf	??___flmul+1,w
  4337  0590  1103               	clrz
  4338  0591  1803               	skipnc
  4339  0592  3E01               	addlw	1
  4340  0593  1903               	skipnz
  4341  0594  2D96               	goto	u2991
  4342  0595  07DD               	addwf	___flmul@prod+1,f
  4343  0596                     u2991:
  4344  0596  0852               	movf	??___flmul+2,w
  4345  0597  1103               	clrz
  4346  0598  1803               	skipnc
  4347  0599  3E01               	addlw	1
  4348  059A  1903               	skipnz
  4349  059B  2D9D               	goto	u2992
  4350  059C  07DE               	addwf	___flmul@prod+2,f
  4351  059D                     u2992:
  4352  059D  0853               	movf	??___flmul+3,w
  4353  059E  1103               	clrz
  4354  059F  1803               	skipnc
  4355  05A0  3E01               	addlw	1
  4356  05A1  1903               	skipnz
  4357  05A2  2DA4               	goto	u2993
  4358  05A3  07DF               	addwf	___flmul@prod+3,f
  4359  05A4                     u2993:
  4360  05A4  084A               	movf	___flmul@b+2,w
  4361  05A5  00D0               	movwf	??___flmul
  4362  05A6  0850               	movf	??___flmul,w
  4363  05A7  00A0               	movwf	__Umul8_16@multiplicand
  4364  05A8  084E               	movf	___flmul@a+2,w
  4365  05A9  120A  118A  27D5  120A  118A  	fcall	__Umul8_16
  4366  05AE  1283               	bcf	3,5	;RP0=0, select bank0
  4367  05AF  1303               	bcf	3,6	;RP1=0, select bank0
  4368  05B0  0821               	movf	?__Umul8_16+1,w
  4369  05B1  00E1               	movwf	___flmul@temp+1
  4370  05B2  0820               	movf	?__Umul8_16,w
  4371  05B3  00E0               	movwf	___flmul@temp
  4372  05B4                     l2522:
  4373  05B4  0860               	movf	___flmul@temp,w
  4374  05B5  00D0               	movwf	??___flmul
  4375  05B6  0861               	movf	___flmul@temp+1,w
  4376  05B7  00D1               	movwf	??___flmul+1
  4377  05B8  01D2               	clrf	??___flmul+2
  4378  05B9  01D3               	clrf	??___flmul+3
  4379  05BA  3008               	movlw	8
  4380  05BB                     u3005:
  4381  05BB  1003               	clrc
  4382  05BC  0DD0               	rlf	??___flmul,f
  4383  05BD  0DD1               	rlf	??___flmul+1,f
  4384  05BE  0DD2               	rlf	??___flmul+2,f
  4385  05BF  0DD3               	rlf	??___flmul+3,f
  4386  05C0                     u3000:
  4387  05C0  3EFF               	addlw	-1
  4388  05C1  1D03               	skipz
  4389  05C2  2DBB               	goto	u3005
  4390  05C3  0850               	movf	??___flmul,w
  4391  05C4  07DC               	addwf	___flmul@prod,f
  4392  05C5  0851               	movf	??___flmul+1,w
  4393  05C6  1103               	clrz
  4394  05C7  1803               	skipnc
  4395  05C8  3E01               	addlw	1
  4396  05C9  1903               	skipnz
  4397  05CA  2DCC               	goto	u3011
  4398  05CB  07DD               	addwf	___flmul@prod+1,f
  4399  05CC                     u3011:
  4400  05CC  0852               	movf	??___flmul+2,w
  4401  05CD  1103               	clrz
  4402  05CE  1803               	skipnc
  4403  05CF  3E01               	addlw	1
  4404  05D0  1903               	skipnz
  4405  05D1  2DD3               	goto	u3012
  4406  05D2  07DE               	addwf	___flmul@prod+2,f
  4407  05D3                     u3012:
  4408  05D3  0853               	movf	??___flmul+3,w
  4409  05D4  1103               	clrz
  4410  05D5  1803               	skipnc
  4411  05D6  3E01               	addlw	1
  4412  05D7  1903               	skipnz
  4413  05D8  2DDA               	goto	u3013
  4414  05D9  07DF               	addwf	___flmul@prod+3,f
  4415  05DA                     u3013:
  4416  05DA                     l2524:
  4417  05DA  0856               	movf	___flmul@grs,w
  4418  05DB  00D0               	movwf	??___flmul
  4419  05DC  0857               	movf	___flmul@grs+1,w
  4420  05DD  00D1               	movwf	??___flmul+1
  4421  05DE  0858               	movf	___flmul@grs+2,w
  4422  05DF  00D2               	movwf	??___flmul+2
  4423  05E0  0859               	movf	___flmul@grs+3,w
  4424  05E1  00D3               	movwf	??___flmul+3
  4425  05E2  3018               	movlw	24
  4426  05E3                     u3025:
  4427  05E3  1003               	clrc
  4428  05E4  0CD3               	rrf	??___flmul+3,f
  4429  05E5  0CD2               	rrf	??___flmul+2,f
  4430  05E6  0CD1               	rrf	??___flmul+1,f
  4431  05E7  0CD0               	rrf	??___flmul,f
  4432  05E8                     u3020:
  4433  05E8  3EFF               	addlw	-1
  4434  05E9  1D03               	skipz
  4435  05EA  2DE3               	goto	u3025
  4436  05EB  0850               	movf	??___flmul,w
  4437  05EC  07DC               	addwf	___flmul@prod,f
  4438  05ED  0851               	movf	??___flmul+1,w
  4439  05EE  1103               	clrz
  4440  05EF  1803               	skipnc
  4441  05F0  3E01               	addlw	1
  4442  05F1  1903               	skipnz
  4443  05F2  2DF4               	goto	u3031
  4444  05F3  07DD               	addwf	___flmul@prod+1,f
  4445  05F4                     u3031:
  4446  05F4  0852               	movf	??___flmul+2,w
  4447  05F5  1103               	clrz
  4448  05F6  1803               	skipnc
  4449  05F7  3E01               	addlw	1
  4450  05F8  1903               	skipnz
  4451  05F9  2DFB               	goto	u3032
  4452  05FA  07DE               	addwf	___flmul@prod+2,f
  4453  05FB                     u3032:
  4454  05FB  0853               	movf	??___flmul+3,w
  4455  05FC  1103               	clrz
  4456  05FD  1803               	skipnc
  4457  05FE  3E01               	addlw	1
  4458  05FF  1903               	skipnz
  4459  0600  2E02               	goto	u3033
  4460  0601  07DF               	addwf	___flmul@prod+3,f
  4461  0602                     u3033:
  4462  0602                     l2526:
  4463  0602  3008               	movlw	8
  4464  0603  00D0               	movwf	??___flmul
  4465  0604                     u3045:
  4466  0604  1003               	clrc
  4467  0605  0DD6               	rlf	___flmul@grs,f
  4468  0606  0DD7               	rlf	___flmul@grs+1,f
  4469  0607  0DD8               	rlf	___flmul@grs+2,f
  4470  0608  0DD9               	rlf	___flmul@grs+3,f
  4471  0609  0BD0               	decfsz	??___flmul,f
  4472  060A  2E04               	goto	u3045
  4473  060B                     l2528:
  4474  060B  085B               	movf	___flmul@bexp,w
  4475  060C  075A               	addwf	___flmul@aexp,w
  4476  060D  00D0               	movwf	??___flmul
  4477  060E  01D1               	clrf	??___flmul+1
  4478  060F  0DD1               	rlf	??___flmul+1,f
  4479  0610  0850               	movf	??___flmul,w
  4480  0611  3E82               	addlw	130
  4481  0612  00E0               	movwf	___flmul@temp
  4482  0613  0851               	movf	??___flmul+1,w
  4483  0614  1803               	skipnc
  4484  0615  3E01               	addlw	1
  4485  0616  3EFF               	addlw	255
  4486  0617  00E1               	movwf	___flmul@temp+1
  4487  0618  2E36               	goto	l2540
  4488  0619                     l2530:
  4489  0619  3001               	movlw	1
  4490  061A  00D0               	movwf	??___flmul
  4491  061B                     u3055:
  4492  061B  1003               	clrc
  4493  061C  0DDC               	rlf	___flmul@prod,f
  4494  061D  0DDD               	rlf	___flmul@prod+1,f
  4495  061E  0DDE               	rlf	___flmul@prod+2,f
  4496  061F  0DDF               	rlf	___flmul@prod+3,f
  4497  0620  0BD0               	decfsz	??___flmul,f
  4498  0621  2E1B               	goto	u3055
  4499  0622                     l2532:
  4500  0622  1FD9               	btfss	___flmul@grs+3,7
  4501  0623  2E25               	goto	u3061
  4502  0624  2E26               	goto	u3060
  4503  0625                     u3061:
  4504  0625  2E27               	goto	l2536
  4505  0626                     u3060:
  4506  0626                     l2534:
  4507  0626  145C               	bsf	___flmul@prod,0
  4508  0627                     l2536:
  4509  0627  3001               	movlw	1
  4510  0628  00D0               	movwf	??___flmul
  4511  0629                     u3075:
  4512  0629  1003               	clrc
  4513  062A  0DD6               	rlf	___flmul@grs,f
  4514  062B  0DD7               	rlf	___flmul@grs+1,f
  4515  062C  0DD8               	rlf	___flmul@grs+2,f
  4516  062D  0DD9               	rlf	___flmul@grs+3,f
  4517  062E  0BD0               	decfsz	??___flmul,f
  4518  062F  2E29               	goto	u3075
  4519  0630                     l2538:
  4520  0630  30FF               	movlw	255
  4521  0631  07E0               	addwf	___flmul@temp,f
  4522  0632  1803               	skipnc
  4523  0633  0AE1               	incf	___flmul@temp+1,f
  4524  0634  30FF               	movlw	255
  4525  0635  07E1               	addwf	___flmul@temp+1,f
  4526  0636                     l2540:
  4527  0636  1FDE               	btfss	___flmul@prod+2,7
  4528  0637  2E39               	goto	u3081
  4529  0638  2E3A               	goto	u3080
  4530  0639                     u3081:
  4531  0639  2E19               	goto	l2530
  4532  063A                     u3080:
  4533  063A                     l2542:
  4534  063A  01DA               	clrf	___flmul@aexp
  4535  063B                     l2544:
  4536  063B  1FD9               	btfss	___flmul@grs+3,7
  4537  063C  2E3E               	goto	u3091
  4538  063D  2E3F               	goto	u3090
  4539  063E                     u3091:
  4540  063E  2E5B               	goto	l2552
  4541  063F                     u3090:
  4542  063F                     l2546:
  4543  063F  30FF               	movlw	255
  4544  0640  0556               	andwf	___flmul@grs,w
  4545  0641  00D0               	movwf	??___flmul
  4546  0642  30FF               	movlw	255
  4547  0643  0557               	andwf	___flmul@grs+1,w
  4548  0644  00D1               	movwf	??___flmul+1
  4549  0645  30FF               	movlw	255
  4550  0646  0558               	andwf	___flmul@grs+2,w
  4551  0647  00D2               	movwf	??___flmul+2
  4552  0648  307F               	movlw	127
  4553  0649  0559               	andwf	___flmul@grs+3,w
  4554  064A  00D3               	movwf	??___flmul+3
  4555  064B  0853               	movf	??___flmul+3,w
  4556  064C  0452               	iorwf	??___flmul+2,w
  4557  064D  0451               	iorwf	??___flmul+1,w
  4558  064E  0450               	iorwf	??___flmul,w
  4559  064F  1903               	skipnz
  4560  0650  2E52               	goto	u3101
  4561  0651  2E53               	goto	u3100
  4562  0652                     u3101:
  4563  0652  2E56               	goto	l719
  4564  0653                     u3100:
  4565  0653                     l2548:
  4566  0653  01DA               	clrf	___flmul@aexp
  4567  0654  0ADA               	incf	___flmul@aexp,f
  4568  0655  2E5B               	goto	l2552
  4569  0656                     l719:
  4570  0656  1C5C               	btfss	___flmul@prod,0
  4571  0657  2E59               	goto	u3111
  4572  0658  2E5A               	goto	u3110
  4573  0659                     u3111:
  4574  0659  2E5B               	goto	l2552
  4575  065A                     u3110:
  4576  065A  2E53               	goto	l2548
  4577  065B                     l2552:
  4578  065B  085A               	movf	___flmul@aexp,w
  4579  065C  1903               	btfsc	3,2
  4580  065D  2E5F               	goto	u3121
  4581  065E  2E60               	goto	u3120
  4582  065F                     u3121:
  4583  065F  2E91               	goto	l2562
  4584  0660                     u3120:
  4585  0660                     l2554:
  4586  0660  3001               	movlw	1
  4587  0661  07DC               	addwf	___flmul@prod,f
  4588  0662  3000               	movlw	0
  4589  0663  1803               	skipnc
  4590  0664  3001               	movlw	1
  4591  0665  07DD               	addwf	___flmul@prod+1,f
  4592  0666  3000               	movlw	0
  4593  0667  1803               	skipnc
  4594  0668  3001               	movlw	1
  4595  0669  07DE               	addwf	___flmul@prod+2,f
  4596  066A  3000               	movlw	0
  4597  066B  1803               	skipnc
  4598  066C  3001               	movlw	1
  4599  066D  07DF               	addwf	___flmul@prod+3,f
  4600  066E                     l2556:
  4601  066E  1C5F               	btfss	___flmul@prod+3,0
  4602  066F  2E71               	goto	u3131
  4603  0670  2E72               	goto	u3130
  4604  0671                     u3131:
  4605  0671  2E91               	goto	l2562
  4606  0672                     u3130:
  4607  0672                     l2558:
  4608  0672  085C               	movf	___flmul@prod,w
  4609  0673  00D0               	movwf	??___flmul
  4610  0674  085D               	movf	___flmul@prod+1,w
  4611  0675  00D1               	movwf	??___flmul+1
  4612  0676  085E               	movf	___flmul@prod+2,w
  4613  0677  00D2               	movwf	??___flmul+2
  4614  0678  085F               	movf	___flmul@prod+3,w
  4615  0679  00D3               	movwf	??___flmul+3
  4616  067A  3001               	movlw	1
  4617  067B  00D4               	movwf	??___flmul+4
  4618  067C                     u3145:
  4619  067C  0D53               	rlf	??___flmul+3,w
  4620  067D  0CD3               	rrf	??___flmul+3,f
  4621  067E  0CD2               	rrf	??___flmul+2,f
  4622  067F  0CD1               	rrf	??___flmul+1,f
  4623  0680  0CD0               	rrf	??___flmul,f
  4624  0681                     u3140:
  4625  0681  0BD4               	decfsz	??___flmul+4,f
  4626  0682  2E7C               	goto	u3145
  4627  0683  0853               	movf	??___flmul+3,w
  4628  0684  00DF               	movwf	___flmul@prod+3
  4629  0685  0852               	movf	??___flmul+2,w
  4630  0686  00DE               	movwf	___flmul@prod+2
  4631  0687  0851               	movf	??___flmul+1,w
  4632  0688  00DD               	movwf	___flmul@prod+1
  4633  0689  0850               	movf	??___flmul,w
  4634  068A  00DC               	movwf	___flmul@prod
  4635  068B                     l2560:
  4636  068B  3001               	movlw	1
  4637  068C  07E0               	addwf	___flmul@temp,f
  4638  068D  1803               	skipnc
  4639  068E  0AE1               	incf	___flmul@temp+1,f
  4640  068F  3000               	movlw	0
  4641  0690  07E1               	addwf	___flmul@temp+1,f
  4642  0691                     l2562:
  4643  0691  0861               	movf	___flmul@temp+1,w
  4644  0692  3A80               	xorlw	128
  4645  0693  00FF               	movwf	btemp+1
  4646  0694  3080               	movlw	128
  4647  0695  027F               	subwf	btemp+1,w
  4648  0696  1D03               	skipz
  4649  0697  2E9A               	goto	u3155
  4650  0698  30FF               	movlw	255
  4651  0699  0260               	subwf	___flmul@temp,w
  4652  069A                     u3155:
  4653  069A  1C03               	skipc
  4654  069B  2E9D               	goto	u3151
  4655  069C  2E9E               	goto	u3150
  4656  069D                     u3151:
  4657  069D  2EA9               	goto	l2566
  4658  069E                     u3150:
  4659  069E                     l2564:
  4660  069E  307F               	movlw	127
  4661  069F  1283               	bcf	3,5	;RP0=0, select bank0
  4662  06A0  1303               	bcf	3,6	;RP1=0, select bank0
  4663  06A1  00DF               	movwf	___flmul@prod+3
  4664  06A2  3080               	movlw	128
  4665  06A3  00DE               	movwf	___flmul@prod+2
  4666  06A4  3000               	movlw	0
  4667  06A5  00DD               	movwf	___flmul@prod+1
  4668  06A6  3000               	movlw	0
  4669  06A7  00DC               	movwf	___flmul@prod
  4670  06A8  2EDE               	goto	l725
  4671  06A9                     l2566:
  4672  06A9  1283               	bcf	3,5	;RP0=0, select bank0
  4673  06AA  1303               	bcf	3,6	;RP1=0, select bank0
  4674  06AB  0861               	movf	___flmul@temp+1,w
  4675  06AC  3A80               	xorlw	128
  4676  06AD  00FF               	movwf	btemp+1
  4677  06AE  3080               	movlw	128
  4678  06AF  027F               	subwf	btemp+1,w
  4679  06B0  1D03               	skipz
  4680  06B1  2EB4               	goto	u3165
  4681  06B2  3001               	movlw	1
  4682  06B3  0260               	subwf	___flmul@temp,w
  4683  06B4                     u3165:
  4684  06B4  1803               	skipnc
  4685  06B5  2EB7               	goto	u3161
  4686  06B6  2EB8               	goto	u3160
  4687  06B7                     u3161:
  4688  06B7  2EC4               	goto	l2572
  4689  06B8                     u3160:
  4690  06B8                     l2568:
  4691  06B8  3000               	movlw	0
  4692  06B9  1283               	bcf	3,5	;RP0=0, select bank0
  4693  06BA  1303               	bcf	3,6	;RP1=0, select bank0
  4694  06BB  00DF               	movwf	___flmul@prod+3
  4695  06BC  3000               	movlw	0
  4696  06BD  00DE               	movwf	___flmul@prod+2
  4697  06BE  3000               	movlw	0
  4698  06BF  00DD               	movwf	___flmul@prod+1
  4699  06C0  3000               	movlw	0
  4700  06C1  00DC               	movwf	___flmul@prod
  4701  06C2                     l2570:
  4702  06C2  01D5               	clrf	___flmul@sign
  4703  06C3  2EDE               	goto	l725
  4704  06C4                     l2572:
  4705  06C4  1283               	bcf	3,5	;RP0=0, select bank0
  4706  06C5  1303               	bcf	3,6	;RP1=0, select bank0
  4707  06C6  0860               	movf	___flmul@temp,w
  4708  06C7  00D0               	movwf	??___flmul
  4709  06C8  0850               	movf	??___flmul,w
  4710  06C9  00DB               	movwf	___flmul@bexp
  4711  06CA  30FF               	movlw	255
  4712  06CB  05DC               	andwf	___flmul@prod,f
  4713  06CC  30FF               	movlw	255
  4714  06CD  05DD               	andwf	___flmul@prod+1,f
  4715  06CE  307F               	movlw	127
  4716  06CF  05DE               	andwf	___flmul@prod+2,f
  4717  06D0  3000               	movlw	0
  4718  06D1  05DF               	andwf	___flmul@prod+3,f
  4719  06D2                     l2574:
  4720  06D2  1C5B               	btfss	___flmul@bexp,0
  4721  06D3  2ED5               	goto	u3171
  4722  06D4  2ED6               	goto	u3170
  4723  06D5                     u3171:
  4724  06D5  2ED7               	goto	l2578
  4725  06D6                     u3170:
  4726  06D6                     l2576:
  4727  06D6  17DE               	bsf	___flmul@prod+2,7
  4728  06D7                     l2578:
  4729  06D7  085B               	movf	___flmul@bexp,w
  4730  06D8  00D0               	movwf	??___flmul
  4731  06D9  1003               	clrc
  4732  06DA  0C50               	rrf	??___flmul,w
  4733  06DB  00D1               	movwf	??___flmul+1
  4734  06DC  0851               	movf	??___flmul+1,w
  4735  06DD  00DF               	movwf	___flmul@prod+3
  4736  06DE                     l725:
  4737  06DE  0855               	movf	___flmul@sign,w
  4738  06DF  00D0               	movwf	??___flmul
  4739  06E0  0850               	movf	??___flmul,w
  4740  06E1  04DF               	iorwf	___flmul@prod+3,f
  4741  06E2                     l2580:
  4742  06E2  085F               	movf	___flmul@prod+3,w
  4743  06E3  00CB               	movwf	?___flmul+3
  4744  06E4  085E               	movf	___flmul@prod+2,w
  4745  06E5  00CA               	movwf	?___flmul+2
  4746  06E6  085D               	movf	___flmul@prod+1,w
  4747  06E7  00C9               	movwf	?___flmul+1
  4748  06E8  085C               	movf	___flmul@prod,w
  4749  06E9  00C8               	movwf	?___flmul
  4750  06EA                     l713:
  4751  06EA  0008               	return
  4752  06EB                     __end_of___flmul:
  4753                           
  4754                           	psect	text13
  4755  07D5                     __ptext13:	
  4756 ;; *************** function __Umul8_16 *****************
  4757 ;; Defined at:
  4758 ;;		line 4 in file "C:\Program Files\Microchip\xc8\v2.35\pic\sources\c90\common\Umul8_16.c"
  4759 ;; Parameters:    Size  Location     Type
  4760 ;;  multiplier      1    wreg     unsigned char 
  4761 ;;  multiplicand    1    0[BANK0 ] unsigned char 
  4762 ;; Auto vars:     Size  Location     Type
  4763 ;;  multiplier      1    8[BANK0 ] unsigned char 
  4764 ;;  word_mpld       2    6[BANK0 ] unsigned int 
  4765 ;;  product         2    4[BANK0 ] unsigned int 
  4766 ;; Return value:  Size  Location     Type
  4767 ;;                  2    0[BANK0 ] unsigned int 
  4768 ;; Registers used:
  4769 ;;		wreg, status,2, status,0
  4770 ;; Tracked objects:
  4771 ;;		On entry : 0/0
  4772 ;;		On exit  : 0/0
  4773 ;;		Unchanged: 0/0
  4774 ;; Data sizes:     COMMON   BANK0   BANK1   BANK3   BANK2
  4775 ;;      Params:         0       2       0       0       0
  4776 ;;      Locals:         0       5       0       0       0
  4777 ;;      Temps:          0       2       0       0       0
  4778 ;;      Totals:         0       9       0       0       0
  4779 ;;Total ram usage:        9 bytes
  4780 ;; Hardware stack levels used: 1
  4781 ;; Hardware stack levels required when called: 2
  4782 ;; This function calls:
  4783 ;;		Nothing
  4784 ;; This function is called by:
  4785 ;;		___flmul
  4786 ;; This function uses a non-reentrant model
  4787 ;;
  4788                           
  4789  07D5                     __Umul8_16:	
  4790                           ;psect for function __Umul8_16
  4791                           
  4792                           
  4793                           ;incstack = 0
  4794                           ; Regs used in __Umul8_16: [wreg+status,2+status,0]
  4795                           ;__Umul8_16@multiplier stored from wreg
  4796  07D5  1283               	bcf	3,5	;RP0=0, select bank0
  4797  07D6  1303               	bcf	3,6	;RP1=0, select bank0
  4798  07D7  00A8               	movwf	__Umul8_16@multiplier
  4799  07D8                     l1900:
  4800  07D8  01A4               	clrf	__Umul8_16@product
  4801  07D9  01A5               	clrf	__Umul8_16@product+1
  4802  07DA                     l1902:
  4803  07DA  0820               	movf	__Umul8_16@multiplicand,w
  4804  07DB  00A2               	movwf	??__Umul8_16
  4805  07DC  01A3               	clrf	??__Umul8_16+1
  4806  07DD  0822               	movf	??__Umul8_16,w
  4807  07DE  00A6               	movwf	__Umul8_16@word_mpld
  4808  07DF  0823               	movf	??__Umul8_16+1,w
  4809  07E0  00A7               	movwf	__Umul8_16@word_mpld+1
  4810  07E1                     l1904:
  4811  07E1  1C28               	btfss	__Umul8_16@multiplier,0
  4812  07E2  2FE4               	goto	u1801
  4813  07E3  2FE5               	goto	u1800
  4814  07E4                     u1801:
  4815  07E4  2FEB               	goto	l732
  4816  07E5                     u1800:
  4817  07E5                     l1906:
  4818  07E5  0826               	movf	__Umul8_16@word_mpld,w
  4819  07E6  07A4               	addwf	__Umul8_16@product,f
  4820  07E7  1803               	skipnc
  4821  07E8  0AA5               	incf	__Umul8_16@product+1,f
  4822  07E9  0827               	movf	__Umul8_16@word_mpld+1,w
  4823  07EA  07A5               	addwf	__Umul8_16@product+1,f
  4824  07EB                     l732:
  4825  07EB  3001               	movlw	1
  4826  07EC                     u1815:
  4827  07EC  1003               	clrc
  4828  07ED  0DA6               	rlf	__Umul8_16@word_mpld,f
  4829  07EE  0DA7               	rlf	__Umul8_16@word_mpld+1,f
  4830  07EF  3EFF               	addlw	-1
  4831  07F0  1D03               	skipz
  4832  07F1  2FEC               	goto	u1815
  4833  07F2  1003               	clrc
  4834  07F3  0CA8               	rrf	__Umul8_16@multiplier,f
  4835  07F4                     l1908:
  4836  07F4  0828               	movf	__Umul8_16@multiplier,w
  4837  07F5  1D03               	btfss	3,2
  4838  07F6  2FF8               	goto	u1821
  4839  07F7  2FF9               	goto	u1820
  4840  07F8                     u1821:
  4841  07F8  2FE1               	goto	l1904
  4842  07F9                     u1820:
  4843  07F9                     l1910:
  4844  07F9  0825               	movf	__Umul8_16@product+1,w
  4845  07FA  00A1               	movwf	?__Umul8_16+1
  4846  07FB  0824               	movf	__Umul8_16@product,w
  4847  07FC  00A0               	movwf	?__Umul8_16
  4848  07FD                     l734:
  4849  07FD  0008               	return
  4850  07FE                     __end_of__Umul8_16:
  4851                           
  4852                           	psect	text14
  4853  0E23                     __ptext14:	
  4854 ;; *************** function ___fldiv *****************
  4855 ;; Defined at:
  4856 ;;		line 8 in file "C:\Program Files\Microchip\xc8\v2.35\pic\sources\c90\common\sprcdiv.c"
  4857 ;; Parameters:    Size  Location     Type
  4858 ;;  a               4   14[BANK0 ] unsigned int 
  4859 ;;  b               4   18[BANK0 ] unsigned int 
  4860 ;; Auto vars:     Size  Location     Type
  4861 ;;  grs             4   34[BANK0 ] unsigned long 
  4862 ;;  rem             4   27[BANK0 ] unsigned long 
  4863 ;;  new_exp         2   32[BANK0 ] int 
  4864 ;;  aexp            1   39[BANK0 ] unsigned char 
  4865 ;;  bexp            1   38[BANK0 ] unsigned char 
  4866 ;;  sign            1   31[BANK0 ] unsigned char 
  4867 ;; Return value:  Size  Location     Type
  4868 ;;                  4   14[BANK0 ] unsigned char 
  4869 ;; Registers used:
  4870 ;;		wreg, status,2, status,0, btemp+1
  4871 ;; Tracked objects:
  4872 ;;		On entry : 0/0
  4873 ;;		On exit  : 0/0
  4874 ;;		Unchanged: 0/0
  4875 ;; Data sizes:     COMMON   BANK0   BANK1   BANK3   BANK2
  4876 ;;      Params:         0       8       0       0       0
  4877 ;;      Locals:         0      13       0       0       0
  4878 ;;      Temps:          0       5       0       0       0
  4879 ;;      Totals:         0      26       0       0       0
  4880 ;;Total ram usage:       26 bytes
  4881 ;; Hardware stack levels used: 1
  4882 ;; Hardware stack levels required when called: 2
  4883 ;; This function calls:
  4884 ;;		Nothing
  4885 ;; This function is called by:
  4886 ;;		_map
  4887 ;; This function uses a non-reentrant model
  4888 ;;
  4889                           
  4890  0E23                     ___fldiv:	
  4891                           ;psect for function ___fldiv
  4892                           
  4893  0E23                     l2302:	
  4894                           ;incstack = 0
  4895                           ; Regs used in ___fldiv: [wreg+status,2+status,0+btemp+1]
  4896                           
  4897  0E23  1283               	bcf	3,5	;RP0=0, select bank0
  4898  0E24  1303               	bcf	3,6	;RP1=0, select bank0
  4899  0E25  0835               	movf	___fldiv@b+3,w
  4900  0E26  3980               	andlw	128
  4901  0E27  00B6               	movwf	??___fldiv
  4902  0E28  0836               	movf	??___fldiv,w
  4903  0E29  00BF               	movwf	___fldiv@sign
  4904  0E2A                     l2304:
  4905  0E2A  0835               	movf	___fldiv@b+3,w
  4906  0E2B  00B6               	movwf	??___fldiv
  4907  0E2C  0736               	addwf	??___fldiv,w
  4908  0E2D  00B7               	movwf	??___fldiv+1
  4909  0E2E  0837               	movf	??___fldiv+1,w
  4910  0E2F  00C6               	movwf	___fldiv@bexp
  4911  0E30                     l2306:
  4912  0E30  1FB4               	btfss	___fldiv@b+2,7
  4913  0E31  2E33               	goto	u2521
  4914  0E32  2E34               	goto	u2520
  4915  0E33                     u2521:
  4916  0E33  2E35               	goto	l2310
  4917  0E34                     u2520:
  4918  0E34                     l2308:
  4919  0E34  1446               	bsf	___fldiv@bexp,0
  4920  0E35                     l2310:
  4921  0E35  0846               	movf	___fldiv@bexp,w
  4922  0E36  1903               	btfsc	3,2
  4923  0E37  2E39               	goto	u2531
  4924  0E38  2E3A               	goto	u2530
  4925  0E39                     u2531:
  4926  0E39  2E4A               	goto	l2320
  4927  0E3A                     u2530:
  4928  0E3A                     l2312:
  4929  0E3A  0A46               	incf	___fldiv@bexp,w
  4930  0E3B  1D03               	btfss	3,2
  4931  0E3C  2E3E               	goto	u2541
  4932  0E3D  2E3F               	goto	u2540
  4933  0E3E                     u2541:
  4934  0E3E  2E47               	goto	l2316
  4935  0E3F                     u2540:
  4936  0E3F                     l2314:
  4937  0E3F  3000               	movlw	0
  4938  0E40  00B5               	movwf	___fldiv@b+3
  4939  0E41  3000               	movlw	0
  4940  0E42  00B4               	movwf	___fldiv@b+2
  4941  0E43  3000               	movlw	0
  4942  0E44  00B3               	movwf	___fldiv@b+1
  4943  0E45  3000               	movlw	0
  4944  0E46  00B2               	movwf	___fldiv@b
  4945  0E47                     l2316:
  4946  0E47  17B4               	bsf	___fldiv@b+2,7
  4947  0E48                     l2318:
  4948  0E48  01B5               	clrf	___fldiv@b+3
  4949  0E49  2E52               	goto	l2322
  4950  0E4A                     l2320:
  4951  0E4A  3000               	movlw	0
  4952  0E4B  00B5               	movwf	___fldiv@b+3
  4953  0E4C  3000               	movlw	0
  4954  0E4D  00B4               	movwf	___fldiv@b+2
  4955  0E4E  3000               	movlw	0
  4956  0E4F  00B3               	movwf	___fldiv@b+1
  4957  0E50  3000               	movlw	0
  4958  0E51  00B2               	movwf	___fldiv@b
  4959  0E52                     l2322:
  4960  0E52  0831               	movf	___fldiv@a+3,w
  4961  0E53  3980               	andlw	128
  4962  0E54  00B6               	movwf	??___fldiv
  4963  0E55  0836               	movf	??___fldiv,w
  4964  0E56  06BF               	xorwf	___fldiv@sign,f
  4965  0E57                     l2324:
  4966  0E57  0831               	movf	___fldiv@a+3,w
  4967  0E58  00B6               	movwf	??___fldiv
  4968  0E59  0736               	addwf	??___fldiv,w
  4969  0E5A  00B7               	movwf	??___fldiv+1
  4970  0E5B  0837               	movf	??___fldiv+1,w
  4971  0E5C  00C7               	movwf	___fldiv@aexp
  4972  0E5D                     l2326:
  4973  0E5D  1FB0               	btfss	___fldiv@a+2,7
  4974  0E5E  2E60               	goto	u2551
  4975  0E5F  2E61               	goto	u2550
  4976  0E60                     u2551:
  4977  0E60  2E62               	goto	l2330
  4978  0E61                     u2550:
  4979  0E61                     l2328:
  4980  0E61  1447               	bsf	___fldiv@aexp,0
  4981  0E62                     l2330:
  4982  0E62  0847               	movf	___fldiv@aexp,w
  4983  0E63  1903               	btfsc	3,2
  4984  0E64  2E66               	goto	u2561
  4985  0E65  2E67               	goto	u2560
  4986  0E66                     u2561:
  4987  0E66  2E77               	goto	l2340
  4988  0E67                     u2560:
  4989  0E67                     l2332:
  4990  0E67  0A47               	incf	___fldiv@aexp,w
  4991  0E68  1D03               	btfss	3,2
  4992  0E69  2E6B               	goto	u2571
  4993  0E6A  2E6C               	goto	u2570
  4994  0E6B                     u2571:
  4995  0E6B  2E74               	goto	l2336
  4996  0E6C                     u2570:
  4997  0E6C                     l2334:
  4998  0E6C  3000               	movlw	0
  4999  0E6D  00B1               	movwf	___fldiv@a+3
  5000  0E6E  3000               	movlw	0
  5001  0E6F  00B0               	movwf	___fldiv@a+2
  5002  0E70  3000               	movlw	0
  5003  0E71  00AF               	movwf	___fldiv@a+1
  5004  0E72  3000               	movlw	0
  5005  0E73  00AE               	movwf	___fldiv@a
  5006  0E74                     l2336:
  5007  0E74  17B0               	bsf	___fldiv@a+2,7
  5008  0E75                     l2338:
  5009  0E75  01B1               	clrf	___fldiv@a+3
  5010  0E76  2E7F               	goto	l673
  5011  0E77                     l2340:
  5012  0E77  3000               	movlw	0
  5013  0E78  00B1               	movwf	___fldiv@a+3
  5014  0E79  3000               	movlw	0
  5015  0E7A  00B0               	movwf	___fldiv@a+2
  5016  0E7B  3000               	movlw	0
  5017  0E7C  00AF               	movwf	___fldiv@a+1
  5018  0E7D  3000               	movlw	0
  5019  0E7E  00AE               	movwf	___fldiv@a
  5020  0E7F                     l673:
  5021  0E7F  0831               	movf	___fldiv@a+3,w
  5022  0E80  0430               	iorwf	___fldiv@a+2,w
  5023  0E81  042F               	iorwf	___fldiv@a+1,w
  5024  0E82  042E               	iorwf	___fldiv@a,w
  5025  0E83  1D03               	skipz
  5026  0E84  2E86               	goto	u2581
  5027  0E85  2E87               	goto	u2580
  5028  0E86                     u2581:
  5029  0E86  2EA0               	goto	l2350
  5030  0E87                     u2580:
  5031  0E87                     l2342:
  5032  0E87  3000               	movlw	0
  5033  0E88  00B5               	movwf	___fldiv@b+3
  5034  0E89  3000               	movlw	0
  5035  0E8A  00B4               	movwf	___fldiv@b+2
  5036  0E8B  3000               	movlw	0
  5037  0E8C  00B3               	movwf	___fldiv@b+1
  5038  0E8D  3000               	movlw	0
  5039  0E8E  00B2               	movwf	___fldiv@b
  5040  0E8F  3080               	movlw	128
  5041  0E90  04B4               	iorwf	___fldiv@b+2,f
  5042  0E91  307F               	movlw	127
  5043  0E92  04B5               	iorwf	___fldiv@b+3,f
  5044  0E93                     l2344:
  5045  0E93  083F               	movf	___fldiv@sign,w
  5046  0E94  00B6               	movwf	??___fldiv
  5047  0E95  0836               	movf	??___fldiv,w
  5048  0E96  04B5               	iorwf	___fldiv@b+3,f
  5049  0E97                     l2346:
  5050  0E97  0835               	movf	___fldiv@b+3,w
  5051  0E98  00B1               	movwf	?___fldiv+3
  5052  0E99  0834               	movf	___fldiv@b+2,w
  5053  0E9A  00B0               	movwf	?___fldiv+2
  5054  0E9B  0833               	movf	___fldiv@b+1,w
  5055  0E9C  00AF               	movwf	?___fldiv+1
  5056  0E9D  0832               	movf	___fldiv@b,w
  5057  0E9E  00AE               	movwf	?___fldiv
  5058  0E9F  2FFF               	goto	l675
  5059  0EA0                     l2350:
  5060  0EA0  0846               	movf	___fldiv@bexp,w
  5061  0EA1  1D03               	btfss	3,2
  5062  0EA2  2EA4               	goto	u2591
  5063  0EA3  2EA5               	goto	u2590
  5064  0EA4                     u2591:
  5065  0EA4  2EAE               	goto	l2356
  5066  0EA5                     u2590:
  5067  0EA5                     l2352:
  5068  0EA5  3000               	movlw	0
  5069  0EA6  00B1               	movwf	?___fldiv+3
  5070  0EA7  3000               	movlw	0
  5071  0EA8  00B0               	movwf	?___fldiv+2
  5072  0EA9  3000               	movlw	0
  5073  0EAA  00AF               	movwf	?___fldiv+1
  5074  0EAB  3000               	movlw	0
  5075  0EAC  00AE               	movwf	?___fldiv
  5076  0EAD  2FFF               	goto	l675
  5077  0EAE                     l2356:
  5078  0EAE  0846               	movf	___fldiv@bexp,w
  5079  0EAF  00B6               	movwf	??___fldiv
  5080  0EB0  01B7               	clrf	??___fldiv+1
  5081  0EB1  0837               	movf	??___fldiv+1,w
  5082  0EB2  00B9               	movwf	??___fldiv+3
  5083  0EB3  0847               	movf	___fldiv@aexp,w
  5084  0EB4  0236               	subwf	??___fldiv,w
  5085  0EB5  00B8               	movwf	??___fldiv+2
  5086  0EB6  1C03               	skipc
  5087  0EB7  03B9               	decf	??___fldiv+3,f
  5088  0EB8  0838               	movf	??___fldiv+2,w
  5089  0EB9  3E7F               	addlw	127
  5090  0EBA  00C0               	movwf	___fldiv@new_exp
  5091  0EBB  0839               	movf	??___fldiv+3,w
  5092  0EBC  1803               	skipnc
  5093  0EBD  3E01               	addlw	1
  5094  0EBE  3E00               	addlw	0
  5095  0EBF  00C1               	movwf	___fldiv@new_exp+1
  5096  0EC0                     l2358:
  5097  0EC0  0835               	movf	___fldiv@b+3,w
  5098  0EC1  00BE               	movwf	___fldiv@rem+3
  5099  0EC2  0834               	movf	___fldiv@b+2,w
  5100  0EC3  00BD               	movwf	___fldiv@rem+2
  5101  0EC4  0833               	movf	___fldiv@b+1,w
  5102  0EC5  00BC               	movwf	___fldiv@rem+1
  5103  0EC6  0832               	movf	___fldiv@b,w
  5104  0EC7  00BB               	movwf	___fldiv@rem
  5105  0EC8                     l2360:
  5106  0EC8  3000               	movlw	0
  5107  0EC9  00B5               	movwf	___fldiv@b+3
  5108  0ECA  3000               	movlw	0
  5109  0ECB  00B4               	movwf	___fldiv@b+2
  5110  0ECC  3000               	movlw	0
  5111  0ECD  00B3               	movwf	___fldiv@b+1
  5112  0ECE  3000               	movlw	0
  5113  0ECF  00B2               	movwf	___fldiv@b
  5114  0ED0                     l2362:
  5115  0ED0  3000               	movlw	0
  5116  0ED1  00C5               	movwf	___fldiv@grs+3
  5117  0ED2  3000               	movlw	0
  5118  0ED3  00C4               	movwf	___fldiv@grs+2
  5119  0ED4  3000               	movlw	0
  5120  0ED5  00C3               	movwf	___fldiv@grs+1
  5121  0ED6  3000               	movlw	0
  5122  0ED7  00C2               	movwf	___fldiv@grs
  5123  0ED8                     l2364:
  5124  0ED8  01C7               	clrf	___fldiv@aexp
  5125  0ED9  2F24               	goto	l2384
  5126  0EDA                     l2366:
  5127  0EDA  0847               	movf	___fldiv@aexp,w
  5128  0EDB  1903               	btfsc	3,2
  5129  0EDC  2EDE               	goto	u2601
  5130  0EDD  2EDF               	goto	u2600
  5131  0EDE                     u2601:
  5132  0EDE  2EFF               	goto	l2376
  5133  0EDF                     u2600:
  5134  0EDF                     l2368:
  5135  0EDF  3001               	movlw	1
  5136  0EE0  00B6               	movwf	??___fldiv
  5137  0EE1                     u2615:
  5138  0EE1  1003               	clrc
  5139  0EE2  0DBB               	rlf	___fldiv@rem,f
  5140  0EE3  0DBC               	rlf	___fldiv@rem+1,f
  5141  0EE4  0DBD               	rlf	___fldiv@rem+2,f
  5142  0EE5  0DBE               	rlf	___fldiv@rem+3,f
  5143  0EE6  0BB6               	decfsz	??___fldiv,f
  5144  0EE7  2EE1               	goto	u2615
  5145  0EE8  3001               	movlw	1
  5146  0EE9  00B6               	movwf	??___fldiv
  5147  0EEA                     u2625:
  5148  0EEA  1003               	clrc
  5149  0EEB  0DB2               	rlf	___fldiv@b,f
  5150  0EEC  0DB3               	rlf	___fldiv@b+1,f
  5151  0EED  0DB4               	rlf	___fldiv@b+2,f
  5152  0EEE  0DB5               	rlf	___fldiv@b+3,f
  5153  0EEF  0BB6               	decfsz	??___fldiv,f
  5154  0EF0  2EEA               	goto	u2625
  5155  0EF1                     l2370:
  5156  0EF1  1FC5               	btfss	___fldiv@grs+3,7
  5157  0EF2  2EF4               	goto	u2631
  5158  0EF3  2EF5               	goto	u2630
  5159  0EF4                     u2631:
  5160  0EF4  2EF6               	goto	l2374
  5161  0EF5                     u2630:
  5162  0EF5                     l2372:
  5163  0EF5  1432               	bsf	___fldiv@b,0
  5164  0EF6                     l2374:
  5165  0EF6  3001               	movlw	1
  5166  0EF7  00B6               	movwf	??___fldiv
  5167  0EF8                     u2645:
  5168  0EF8  1003               	clrc
  5169  0EF9  0DC2               	rlf	___fldiv@grs,f
  5170  0EFA  0DC3               	rlf	___fldiv@grs+1,f
  5171  0EFB  0DC4               	rlf	___fldiv@grs+2,f
  5172  0EFC  0DC5               	rlf	___fldiv@grs+3,f
  5173  0EFD  0BB6               	decfsz	??___fldiv,f
  5174  0EFE  2EF8               	goto	u2645
  5175  0EFF                     l2376:
  5176  0EFF  0831               	movf	___fldiv@a+3,w
  5177  0F00  023E               	subwf	___fldiv@rem+3,w
  5178  0F01  1D03               	skipz
  5179  0F02  2F0D               	goto	u2655
  5180  0F03  0830               	movf	___fldiv@a+2,w
  5181  0F04  023D               	subwf	___fldiv@rem+2,w
  5182  0F05  1D03               	skipz
  5183  0F06  2F0D               	goto	u2655
  5184  0F07  082F               	movf	___fldiv@a+1,w
  5185  0F08  023C               	subwf	___fldiv@rem+1,w
  5186  0F09  1D03               	skipz
  5187  0F0A  2F0D               	goto	u2655
  5188  0F0B  082E               	movf	___fldiv@a,w
  5189  0F0C  023B               	subwf	___fldiv@rem,w
  5190  0F0D                     u2655:
  5191  0F0D  1C03               	skipc
  5192  0F0E  2F10               	goto	u2651
  5193  0F0F  2F11               	goto	u2650
  5194  0F10                     u2651:
  5195  0F10  2F20               	goto	l2382
  5196  0F11                     u2650:
  5197  0F11                     l2378:
  5198  0F11  1745               	bsf	___fldiv@grs+3,6
  5199  0F12                     l2380:
  5200  0F12  082E               	movf	___fldiv@a,w
  5201  0F13  02BB               	subwf	___fldiv@rem,f
  5202  0F14  082F               	movf	___fldiv@a+1,w
  5203  0F15  1C03               	skipc
  5204  0F16  0F2F               	incfsz	___fldiv@a+1,w
  5205  0F17  02BC               	subwf	___fldiv@rem+1,f
  5206  0F18  0830               	movf	___fldiv@a+2,w
  5207  0F19  1C03               	skipc
  5208  0F1A  0F30               	incfsz	___fldiv@a+2,w
  5209  0F1B  02BD               	subwf	___fldiv@rem+2,f
  5210  0F1C  0831               	movf	___fldiv@a+3,w
  5211  0F1D  1C03               	skipc
  5212  0F1E  0F31               	incfsz	___fldiv@a+3,w
  5213  0F1F  02BE               	subwf	___fldiv@rem+3,f
  5214  0F20                     l2382:
  5215  0F20  3001               	movlw	1
  5216  0F21  00B6               	movwf	??___fldiv
  5217  0F22  0836               	movf	??___fldiv,w
  5218  0F23  07C7               	addwf	___fldiv@aexp,f
  5219  0F24                     l2384:
  5220  0F24  301A               	movlw	26
  5221  0F25  0247               	subwf	___fldiv@aexp,w
  5222  0F26  1C03               	skipc
  5223  0F27  2F29               	goto	u2661
  5224  0F28  2F2A               	goto	u2660
  5225  0F29                     u2661:
  5226  0F29  2EDA               	goto	l2366
  5227  0F2A                     u2660:
  5228  0F2A                     l2386:
  5229  0F2A  083E               	movf	___fldiv@rem+3,w
  5230  0F2B  043D               	iorwf	___fldiv@rem+2,w
  5231  0F2C  043C               	iorwf	___fldiv@rem+1,w
  5232  0F2D  043B               	iorwf	___fldiv@rem,w
  5233  0F2E  1903               	skipnz
  5234  0F2F  2F31               	goto	u2671
  5235  0F30  2F32               	goto	u2670
  5236  0F31                     u2671:
  5237  0F31  2F51               	goto	l2400
  5238  0F32                     u2670:
  5239  0F32                     l2388:
  5240  0F32  1442               	bsf	___fldiv@grs,0
  5241  0F33  2F51               	goto	l2400
  5242  0F34                     l2390:
  5243  0F34  3001               	movlw	1
  5244  0F35  00B6               	movwf	??___fldiv
  5245  0F36                     u2685:
  5246  0F36  1003               	clrc
  5247  0F37  0DB2               	rlf	___fldiv@b,f
  5248  0F38  0DB3               	rlf	___fldiv@b+1,f
  5249  0F39  0DB4               	rlf	___fldiv@b+2,f
  5250  0F3A  0DB5               	rlf	___fldiv@b+3,f
  5251  0F3B  0BB6               	decfsz	??___fldiv,f
  5252  0F3C  2F36               	goto	u2685
  5253  0F3D                     l2392:
  5254  0F3D  1FC5               	btfss	___fldiv@grs+3,7
  5255  0F3E  2F40               	goto	u2691
  5256  0F3F  2F41               	goto	u2690
  5257  0F40                     u2691:
  5258  0F40  2F42               	goto	l2396
  5259  0F41                     u2690:
  5260  0F41                     l2394:
  5261  0F41  1432               	bsf	___fldiv@b,0
  5262  0F42                     l2396:
  5263  0F42  3001               	movlw	1
  5264  0F43  00B6               	movwf	??___fldiv
  5265  0F44                     u2705:
  5266  0F44  1003               	clrc
  5267  0F45  0DC2               	rlf	___fldiv@grs,f
  5268  0F46  0DC3               	rlf	___fldiv@grs+1,f
  5269  0F47  0DC4               	rlf	___fldiv@grs+2,f
  5270  0F48  0DC5               	rlf	___fldiv@grs+3,f
  5271  0F49  0BB6               	decfsz	??___fldiv,f
  5272  0F4A  2F44               	goto	u2705
  5273  0F4B                     l2398:
  5274  0F4B  30FF               	movlw	255
  5275  0F4C  07C0               	addwf	___fldiv@new_exp,f
  5276  0F4D  1803               	skipnc
  5277  0F4E  0AC1               	incf	___fldiv@new_exp+1,f
  5278  0F4F  30FF               	movlw	255
  5279  0F50  07C1               	addwf	___fldiv@new_exp+1,f
  5280  0F51                     l2400:
  5281  0F51  1FB4               	btfss	___fldiv@b+2,7
  5282  0F52  2F54               	goto	u2711
  5283  0F53  2F55               	goto	u2710
  5284  0F54                     u2711:
  5285  0F54  2F34               	goto	l2390
  5286  0F55                     u2710:
  5287  0F55                     l2402:
  5288  0F55  01C7               	clrf	___fldiv@aexp
  5289  0F56                     l2404:
  5290  0F56  1FC5               	btfss	___fldiv@grs+3,7
  5291  0F57  2F59               	goto	u2721
  5292  0F58  2F5A               	goto	u2720
  5293  0F59                     u2721:
  5294  0F59  2F76               	goto	l2412
  5295  0F5A                     u2720:
  5296  0F5A                     l2406:
  5297  0F5A  30FF               	movlw	255
  5298  0F5B  0542               	andwf	___fldiv@grs,w
  5299  0F5C  00B6               	movwf	??___fldiv
  5300  0F5D  30FF               	movlw	255
  5301  0F5E  0543               	andwf	___fldiv@grs+1,w
  5302  0F5F  00B7               	movwf	??___fldiv+1
  5303  0F60  30FF               	movlw	255
  5304  0F61  0544               	andwf	___fldiv@grs+2,w
  5305  0F62  00B8               	movwf	??___fldiv+2
  5306  0F63  307F               	movlw	127
  5307  0F64  0545               	andwf	___fldiv@grs+3,w
  5308  0F65  00B9               	movwf	??___fldiv+3
  5309  0F66  0839               	movf	??___fldiv+3,w
  5310  0F67  0438               	iorwf	??___fldiv+2,w
  5311  0F68  0437               	iorwf	??___fldiv+1,w
  5312  0F69  0436               	iorwf	??___fldiv,w
  5313  0F6A  1903               	skipnz
  5314  0F6B  2F6D               	goto	u2731
  5315  0F6C  2F6E               	goto	u2730
  5316  0F6D                     u2731:
  5317  0F6D  2F71               	goto	l689
  5318  0F6E                     u2730:
  5319  0F6E                     l2408:
  5320  0F6E  01C7               	clrf	___fldiv@aexp
  5321  0F6F  0AC7               	incf	___fldiv@aexp,f
  5322  0F70  2F76               	goto	l2412
  5323  0F71                     l689:
  5324  0F71  1C32               	btfss	___fldiv@b,0
  5325  0F72  2F74               	goto	u2741
  5326  0F73  2F75               	goto	u2740
  5327  0F74                     u2741:
  5328  0F74  2F76               	goto	l2412
  5329  0F75                     u2740:
  5330  0F75  2F6E               	goto	l2408
  5331  0F76                     l2412:
  5332  0F76  0847               	movf	___fldiv@aexp,w
  5333  0F77  1903               	btfsc	3,2
  5334  0F78  2F7A               	goto	u2751
  5335  0F79  2F7B               	goto	u2750
  5336  0F7A                     u2751:
  5337  0F7A  2FAC               	goto	l2422
  5338  0F7B                     u2750:
  5339  0F7B                     l2414:
  5340  0F7B  3001               	movlw	1
  5341  0F7C  07B2               	addwf	___fldiv@b,f
  5342  0F7D  3000               	movlw	0
  5343  0F7E  1803               	skipnc
  5344  0F7F  3001               	movlw	1
  5345  0F80  07B3               	addwf	___fldiv@b+1,f
  5346  0F81  3000               	movlw	0
  5347  0F82  1803               	skipnc
  5348  0F83  3001               	movlw	1
  5349  0F84  07B4               	addwf	___fldiv@b+2,f
  5350  0F85  3000               	movlw	0
  5351  0F86  1803               	skipnc
  5352  0F87  3001               	movlw	1
  5353  0F88  07B5               	addwf	___fldiv@b+3,f
  5354  0F89                     l2416:
  5355  0F89  1C35               	btfss	___fldiv@b+3,0
  5356  0F8A  2F8C               	goto	u2761
  5357  0F8B  2F8D               	goto	u2760
  5358  0F8C                     u2761:
  5359  0F8C  2FAC               	goto	l2422
  5360  0F8D                     u2760:
  5361  0F8D                     l2418:
  5362  0F8D  0832               	movf	___fldiv@b,w
  5363  0F8E  00B6               	movwf	??___fldiv
  5364  0F8F  0833               	movf	___fldiv@b+1,w
  5365  0F90  00B7               	movwf	??___fldiv+1
  5366  0F91  0834               	movf	___fldiv@b+2,w
  5367  0F92  00B8               	movwf	??___fldiv+2
  5368  0F93  0835               	movf	___fldiv@b+3,w
  5369  0F94  00B9               	movwf	??___fldiv+3
  5370  0F95  3001               	movlw	1
  5371  0F96  00BA               	movwf	??___fldiv+4
  5372  0F97                     u2775:
  5373  0F97  0D39               	rlf	??___fldiv+3,w
  5374  0F98  0CB9               	rrf	??___fldiv+3,f
  5375  0F99  0CB8               	rrf	??___fldiv+2,f
  5376  0F9A  0CB7               	rrf	??___fldiv+1,f
  5377  0F9B  0CB6               	rrf	??___fldiv,f
  5378  0F9C                     u2770:
  5379  0F9C  0BBA               	decfsz	??___fldiv+4,f
  5380  0F9D  2F97               	goto	u2775
  5381  0F9E  0839               	movf	??___fldiv+3,w
  5382  0F9F  00B5               	movwf	___fldiv@b+3
  5383  0FA0  0838               	movf	??___fldiv+2,w
  5384  0FA1  00B4               	movwf	___fldiv@b+2
  5385  0FA2  0837               	movf	??___fldiv+1,w
  5386  0FA3  00B3               	movwf	___fldiv@b+1
  5387  0FA4  0836               	movf	??___fldiv,w
  5388  0FA5  00B2               	movwf	___fldiv@b
  5389  0FA6                     l2420:
  5390  0FA6  3001               	movlw	1
  5391  0FA7  07C0               	addwf	___fldiv@new_exp,f
  5392  0FA8  1803               	skipnc
  5393  0FA9  0AC1               	incf	___fldiv@new_exp+1,f
  5394  0FAA  3000               	movlw	0
  5395  0FAB  07C1               	addwf	___fldiv@new_exp+1,f
  5396  0FAC                     l2422:
  5397  0FAC  0841               	movf	___fldiv@new_exp+1,w
  5398  0FAD  3A80               	xorlw	128
  5399  0FAE  00FF               	movwf	btemp+1
  5400  0FAF  3080               	movlw	128
  5401  0FB0  027F               	subwf	btemp+1,w
  5402  0FB1  1D03               	skipz
  5403  0FB2  2FB5               	goto	u2785
  5404  0FB3  30FF               	movlw	255
  5405  0FB4  0240               	subwf	___fldiv@new_exp,w
  5406  0FB5                     u2785:
  5407  0FB5  1C03               	skipc
  5408  0FB6  2FB8               	goto	u2781
  5409  0FB7  2FB9               	goto	u2780
  5410  0FB8                     u2781:
  5411  0FB8  2FC7               	goto	l2426
  5412  0FB9                     u2780:
  5413  0FB9                     l2424:
  5414  0FB9  30FF               	movlw	255
  5415  0FBA  1283               	bcf	3,5	;RP0=0, select bank0
  5416  0FBB  1303               	bcf	3,6	;RP1=0, select bank0
  5417  0FBC  00C0               	movwf	___fldiv@new_exp
  5418  0FBD  3000               	movlw	0
  5419  0FBE  00C1               	movwf	___fldiv@new_exp+1
  5420  0FBF  3000               	movlw	0
  5421  0FC0  00B5               	movwf	___fldiv@b+3
  5422  0FC1  3000               	movlw	0
  5423  0FC2  00B4               	movwf	___fldiv@b+2
  5424  0FC3  3000               	movlw	0
  5425  0FC4  00B3               	movwf	___fldiv@b+1
  5426  0FC5  3000               	movlw	0
  5427  0FC6  00B2               	movwf	___fldiv@b
  5428  0FC7                     l2426:
  5429  0FC7  1283               	bcf	3,5	;RP0=0, select bank0
  5430  0FC8  1303               	bcf	3,6	;RP1=0, select bank0
  5431  0FC9  0841               	movf	___fldiv@new_exp+1,w
  5432  0FCA  3A80               	xorlw	128
  5433  0FCB  00FF               	movwf	btemp+1
  5434  0FCC  3080               	movlw	128
  5435  0FCD  027F               	subwf	btemp+1,w
  5436  0FCE  1D03               	skipz
  5437  0FCF  2FD2               	goto	u2795
  5438  0FD0  3001               	movlw	1
  5439  0FD1  0240               	subwf	___fldiv@new_exp,w
  5440  0FD2                     u2795:
  5441  0FD2  1803               	skipnc
  5442  0FD3  2FD5               	goto	u2791
  5443  0FD4  2FD6               	goto	u2790
  5444  0FD5                     u2791:
  5445  0FD5  2FE3               	goto	l695
  5446  0FD6                     u2790:
  5447  0FD6                     l2428:
  5448  0FD6  1283               	bcf	3,5	;RP0=0, select bank0
  5449  0FD7  1303               	bcf	3,6	;RP1=0, select bank0
  5450  0FD8  01C0               	clrf	___fldiv@new_exp
  5451  0FD9  01C1               	clrf	___fldiv@new_exp+1
  5452  0FDA                     l2430:
  5453  0FDA  3000               	movlw	0
  5454  0FDB  00B5               	movwf	___fldiv@b+3
  5455  0FDC  3000               	movlw	0
  5456  0FDD  00B4               	movwf	___fldiv@b+2
  5457  0FDE  3000               	movlw	0
  5458  0FDF  00B3               	movwf	___fldiv@b+1
  5459  0FE0  3000               	movlw	0
  5460  0FE1  00B2               	movwf	___fldiv@b
  5461  0FE2                     l2432:
  5462  0FE2  01BF               	clrf	___fldiv@sign
  5463  0FE3                     l695:
  5464  0FE3  1283               	bcf	3,5	;RP0=0, select bank0
  5465  0FE4  1303               	bcf	3,6	;RP1=0, select bank0
  5466  0FE5  0840               	movf	___fldiv@new_exp,w
  5467  0FE6  00B6               	movwf	??___fldiv
  5468  0FE7  0836               	movf	??___fldiv,w
  5469  0FE8  00C6               	movwf	___fldiv@bexp
  5470  0FE9                     l2434:
  5471  0FE9  1C46               	btfss	___fldiv@bexp,0
  5472  0FEA  2FEC               	goto	u2801
  5473  0FEB  2FED               	goto	u2800
  5474  0FEC                     u2801:
  5475  0FEC  2FEF               	goto	l2438
  5476  0FED                     u2800:
  5477  0FED                     l2436:
  5478  0FED  17B4               	bsf	___fldiv@b+2,7
  5479  0FEE  2FF3               	goto	l697
  5480  0FEF                     l2438:
  5481  0FEF  307F               	movlw	127
  5482  0FF0  00B6               	movwf	??___fldiv
  5483  0FF1  0836               	movf	??___fldiv,w
  5484  0FF2  05B4               	andwf	___fldiv@b+2,f
  5485  0FF3                     l697:
  5486  0FF3  0846               	movf	___fldiv@bexp,w
  5487  0FF4  00B6               	movwf	??___fldiv
  5488  0FF5  1003               	clrc
  5489  0FF6  0C36               	rrf	??___fldiv,w
  5490  0FF7  00B7               	movwf	??___fldiv+1
  5491  0FF8  0837               	movf	??___fldiv+1,w
  5492  0FF9  00B5               	movwf	___fldiv@b+3
  5493  0FFA  083F               	movf	___fldiv@sign,w
  5494  0FFB  00B6               	movwf	??___fldiv
  5495  0FFC  0836               	movf	??___fldiv,w
  5496  0FFD  04B5               	iorwf	___fldiv@b+3,f
  5497  0FFE  2E97               	goto	l2346
  5498  0FFF                     l675:
  5499  0FFF  0008               	return
  5500  1000                     __end_of___fldiv:
  5501                           
  5502                           	psect	text15
  5503  0024                     __ptext15:	
  5504 ;; *************** function ___fladd *****************
  5505 ;; Defined at:
  5506 ;;		line 10 in file "C:\Program Files\Microchip\xc8\v2.35\pic\sources\c90\common\sprcadd.c"
  5507 ;; Parameters:    Size  Location     Type
  5508 ;;  b               4   66[BANK0 ] unsigned char 
  5509 ;;  a               4   70[BANK0 ] unsigned char 
  5510 ;; Auto vars:     Size  Location     Type
  5511 ;;  grs             1   77[BANK0 ] unsigned char 
  5512 ;;  bexp            1   76[BANK0 ] unsigned char 
  5513 ;;  aexp            1   75[BANK0 ] unsigned char 
  5514 ;;  signs           1   74[BANK0 ] unsigned char 
  5515 ;; Return value:  Size  Location     Type
  5516 ;;                  4   66[BANK0 ] unsigned char 
  5517 ;; Registers used:
  5518 ;;		wreg, status,2, status,0, btemp+1
  5519 ;; Tracked objects:
  5520 ;;		On entry : 0/0
  5521 ;;		On exit  : 0/0
  5522 ;;		Unchanged: 0/0
  5523 ;; Data sizes:     COMMON   BANK0   BANK1   BANK3   BANK2
  5524 ;;      Params:         0       8       0       0       0
  5525 ;;      Locals:         0       4       0       0       0
  5526 ;;      Temps:          0       0       8       0       0
  5527 ;;      Totals:         0      12       8       0       0
  5528 ;;Total ram usage:       20 bytes
  5529 ;; Hardware stack levels used: 1
  5530 ;; Hardware stack levels required when called: 2
  5531 ;; This function calls:
  5532 ;;		Nothing
  5533 ;; This function is called by:
  5534 ;;		_map
  5535 ;; This function uses a non-reentrant model
  5536 ;;
  5537                           
  5538  0024                     ___fladd:	
  5539                           ;psect for function ___fladd
  5540                           
  5541  0024                     l2108:	
  5542                           ;incstack = 0
  5543                           ; Regs used in ___fladd: [wreg+status,2+status,0+btemp+1]
  5544                           
  5545  0024  1283               	bcf	3,5	;RP0=0, select bank0
  5546  0025  1303               	bcf	3,6	;RP1=0, select bank0
  5547  0026  0865               	movf	___fladd@b+3,w
  5548  0027  3980               	andlw	128
  5549  0028  1683               	bsf	3,5	;RP0=1, select bank1
  5550  0029  1303               	bcf	3,6	;RP1=0, select bank1
  5551  002A  00A0               	movwf	??___fladd^(0+128)
  5552  002B  0820               	movf	??___fladd^(0+128),w
  5553  002C  1283               	bcf	3,5	;RP0=0, select bank0
  5554  002D  1303               	bcf	3,6	;RP1=0, select bank0
  5555  002E  00EA               	movwf	___fladd@signs
  5556  002F                     l2110:
  5557  002F  0865               	movf	___fladd@b+3,w
  5558  0030  1683               	bsf	3,5	;RP0=1, select bank1
  5559  0031  1303               	bcf	3,6	;RP1=0, select bank1
  5560  0032  00A0               	movwf	??___fladd^(0+128)
  5561  0033  0720               	addwf	??___fladd^(0+128),w
  5562  0034  00A1               	movwf	(??___fladd+1)^(0+128)
  5563  0035  0821               	movf	(??___fladd+1)^(0+128),w
  5564  0036  1283               	bcf	3,5	;RP0=0, select bank0
  5565  0037  1303               	bcf	3,6	;RP1=0, select bank0
  5566  0038  00EC               	movwf	___fladd@bexp
  5567  0039                     l2112:
  5568  0039  1FE4               	btfss	___fladd@b+2,7
  5569  003A  283C               	goto	u2061
  5570  003B  283D               	goto	u2060
  5571  003C                     u2061:
  5572  003C  283E               	goto	l2116
  5573  003D                     u2060:
  5574  003D                     l2114:
  5575  003D  146C               	bsf	___fladd@bexp,0
  5576  003E                     l2116:
  5577  003E  086C               	movf	___fladd@bexp,w
  5578  003F  1903               	btfsc	3,2
  5579  0040  2842               	goto	u2071
  5580  0041  2843               	goto	u2070
  5581  0042                     u2071:
  5582  0042  2853               	goto	l2126
  5583  0043                     u2070:
  5584  0043                     l2118:
  5585  0043  0A6C               	incf	___fladd@bexp,w
  5586  0044  1D03               	btfss	3,2
  5587  0045  2847               	goto	u2081
  5588  0046  2848               	goto	u2080
  5589  0047                     u2081:
  5590  0047  2850               	goto	l2122
  5591  0048                     u2080:
  5592  0048                     l2120:
  5593  0048  3000               	movlw	0
  5594  0049  00E5               	movwf	___fladd@b+3
  5595  004A  3000               	movlw	0
  5596  004B  00E4               	movwf	___fladd@b+2
  5597  004C  3000               	movlw	0
  5598  004D  00E3               	movwf	___fladd@b+1
  5599  004E  3000               	movlw	0
  5600  004F  00E2               	movwf	___fladd@b
  5601  0050                     l2122:
  5602  0050  17E4               	bsf	___fladd@b+2,7
  5603  0051                     l2124:
  5604  0051  01E5               	clrf	___fladd@b+3
  5605  0052  285B               	goto	l2128
  5606  0053                     l2126:
  5607  0053  3000               	movlw	0
  5608  0054  00E5               	movwf	___fladd@b+3
  5609  0055  3000               	movlw	0
  5610  0056  00E4               	movwf	___fladd@b+2
  5611  0057  3000               	movlw	0
  5612  0058  00E3               	movwf	___fladd@b+1
  5613  0059  3000               	movlw	0
  5614  005A  00E2               	movwf	___fladd@b
  5615  005B                     l2128:
  5616  005B  0869               	movf	___fladd@a+3,w
  5617  005C  3980               	andlw	128
  5618  005D  1683               	bsf	3,5	;RP0=1, select bank1
  5619  005E  1303               	bcf	3,6	;RP1=0, select bank1
  5620  005F  00A0               	movwf	??___fladd^(0+128)
  5621  0060  0820               	movf	??___fladd^(0+128),w
  5622  0061  1283               	bcf	3,5	;RP0=0, select bank0
  5623  0062  1303               	bcf	3,6	;RP1=0, select bank0
  5624  0063  00EB               	movwf	___fladd@aexp
  5625  0064                     l2130:
  5626  0064  086B               	movf	___fladd@aexp,w
  5627  0065  066A               	xorwf	___fladd@signs,w
  5628  0066  1903               	skipnz
  5629  0067  2869               	goto	u2091
  5630  0068  286A               	goto	u2090
  5631  0069                     u2091:
  5632  0069  286B               	goto	l2134
  5633  006A                     u2090:
  5634  006A                     l2132:
  5635  006A  176A               	bsf	___fladd@signs,6
  5636  006B                     l2134:
  5637  006B  0869               	movf	___fladd@a+3,w
  5638  006C  1683               	bsf	3,5	;RP0=1, select bank1
  5639  006D  1303               	bcf	3,6	;RP1=0, select bank1
  5640  006E  00A0               	movwf	??___fladd^(0+128)
  5641  006F  0720               	addwf	??___fladd^(0+128),w
  5642  0070  00A1               	movwf	(??___fladd+1)^(0+128)
  5643  0071  0821               	movf	(??___fladd+1)^(0+128),w
  5644  0072  1283               	bcf	3,5	;RP0=0, select bank0
  5645  0073  1303               	bcf	3,6	;RP1=0, select bank0
  5646  0074  00EB               	movwf	___fladd@aexp
  5647  0075                     l2136:
  5648  0075  1FE8               	btfss	___fladd@a+2,7
  5649  0076  2878               	goto	u2101
  5650  0077  2879               	goto	u2100
  5651  0078                     u2101:
  5652  0078  287A               	goto	l2140
  5653  0079                     u2100:
  5654  0079                     l2138:
  5655  0079  146B               	bsf	___fladd@aexp,0
  5656  007A                     l2140:
  5657  007A  086B               	movf	___fladd@aexp,w
  5658  007B  1903               	btfsc	3,2
  5659  007C  287E               	goto	u2111
  5660  007D  287F               	goto	u2110
  5661  007E                     u2111:
  5662  007E  288F               	goto	l2150
  5663  007F                     u2110:
  5664  007F                     l2142:
  5665  007F  0A6B               	incf	___fladd@aexp,w
  5666  0080  1D03               	btfss	3,2
  5667  0081  2883               	goto	u2121
  5668  0082  2884               	goto	u2120
  5669  0083                     u2121:
  5670  0083  288C               	goto	l2146
  5671  0084                     u2120:
  5672  0084                     l2144:
  5673  0084  3000               	movlw	0
  5674  0085  00E9               	movwf	___fladd@a+3
  5675  0086  3000               	movlw	0
  5676  0087  00E8               	movwf	___fladd@a+2
  5677  0088  3000               	movlw	0
  5678  0089  00E7               	movwf	___fladd@a+1
  5679  008A  3000               	movlw	0
  5680  008B  00E6               	movwf	___fladd@a
  5681  008C                     l2146:
  5682  008C  17E8               	bsf	___fladd@a+2,7
  5683  008D                     l2148:
  5684  008D  01E9               	clrf	___fladd@a+3
  5685  008E  2897               	goto	l617
  5686  008F                     l2150:
  5687  008F  3000               	movlw	0
  5688  0090  00E9               	movwf	___fladd@a+3
  5689  0091  3000               	movlw	0
  5690  0092  00E8               	movwf	___fladd@a+2
  5691  0093  3000               	movlw	0
  5692  0094  00E7               	movwf	___fladd@a+1
  5693  0095  3000               	movlw	0
  5694  0096  00E6               	movwf	___fladd@a
  5695  0097                     l617:
  5696  0097  086C               	movf	___fladd@bexp,w
  5697  0098  026B               	subwf	___fladd@aexp,w
  5698  0099  1803               	skipnc
  5699  009A  289C               	goto	u2131
  5700  009B  289D               	goto	u2130
  5701  009C                     u2131:
  5702  009C  2921               	goto	l2186
  5703  009D                     u2130:
  5704  009D                     l2152:
  5705  009D  1F6A               	btfss	___fladd@signs,6
  5706  009E  28A0               	goto	u2141
  5707  009F  28A1               	goto	u2140
  5708  00A0                     u2141:
  5709  00A0  28A9               	goto	l2156
  5710  00A1                     u2140:
  5711  00A1                     l2154:
  5712  00A1  3080               	movlw	128
  5713  00A2  1683               	bsf	3,5	;RP0=1, select bank1
  5714  00A3  1303               	bcf	3,6	;RP1=0, select bank1
  5715  00A4  00A0               	movwf	??___fladd^(0+128)
  5716  00A5  0820               	movf	??___fladd^(0+128),w
  5717  00A6  1283               	bcf	3,5	;RP0=0, select bank0
  5718  00A7  1303               	bcf	3,6	;RP1=0, select bank0
  5719  00A8  06EA               	xorwf	___fladd@signs,f
  5720  00A9                     l2156:
  5721  00A9  086C               	movf	___fladd@bexp,w
  5722  00AA  1683               	bsf	3,5	;RP0=1, select bank1
  5723  00AB  1303               	bcf	3,6	;RP1=0, select bank1
  5724  00AC  00A0               	movwf	??___fladd^(0+128)
  5725  00AD  0820               	movf	??___fladd^(0+128),w
  5726  00AE  1283               	bcf	3,5	;RP0=0, select bank0
  5727  00AF  1303               	bcf	3,6	;RP1=0, select bank0
  5728  00B0  00ED               	movwf	___fladd@grs
  5729  00B1                     l2158:
  5730  00B1  086B               	movf	___fladd@aexp,w
  5731  00B2  1683               	bsf	3,5	;RP0=1, select bank1
  5732  00B3  1303               	bcf	3,6	;RP1=0, select bank1
  5733  00B4  00A0               	movwf	??___fladd^(0+128)
  5734  00B5  0820               	movf	??___fladd^(0+128),w
  5735  00B6  1283               	bcf	3,5	;RP0=0, select bank0
  5736  00B7  1303               	bcf	3,6	;RP1=0, select bank0
  5737  00B8  00EC               	movwf	___fladd@bexp
  5738  00B9                     l2160:
  5739  00B9  086D               	movf	___fladd@grs,w
  5740  00BA  1683               	bsf	3,5	;RP0=1, select bank1
  5741  00BB  1303               	bcf	3,6	;RP1=0, select bank1
  5742  00BC  00A0               	movwf	??___fladd^(0+128)
  5743  00BD  0820               	movf	??___fladd^(0+128),w
  5744  00BE  1283               	bcf	3,5	;RP0=0, select bank0
  5745  00BF  1303               	bcf	3,6	;RP1=0, select bank0
  5746  00C0  00EB               	movwf	___fladd@aexp
  5747  00C1                     l2162:
  5748  00C1  0862               	movf	___fladd@b,w
  5749  00C2  1683               	bsf	3,5	;RP0=1, select bank1
  5750  00C3  1303               	bcf	3,6	;RP1=0, select bank1
  5751  00C4  00A0               	movwf	??___fladd^(0+128)
  5752  00C5  0820               	movf	??___fladd^(0+128),w
  5753  00C6  1283               	bcf	3,5	;RP0=0, select bank0
  5754  00C7  1303               	bcf	3,6	;RP1=0, select bank0
  5755  00C8  00ED               	movwf	___fladd@grs
  5756  00C9                     l2164:
  5757  00C9  0866               	movf	___fladd@a,w
  5758  00CA  1683               	bsf	3,5	;RP0=1, select bank1
  5759  00CB  1303               	bcf	3,6	;RP1=0, select bank1
  5760  00CC  00A0               	movwf	??___fladd^(0+128)
  5761  00CD  0820               	movf	??___fladd^(0+128),w
  5762  00CE  1283               	bcf	3,5	;RP0=0, select bank0
  5763  00CF  1303               	bcf	3,6	;RP1=0, select bank0
  5764  00D0  00E2               	movwf	___fladd@b
  5765  00D1                     l2166:
  5766  00D1  086D               	movf	___fladd@grs,w
  5767  00D2  1683               	bsf	3,5	;RP0=1, select bank1
  5768  00D3  1303               	bcf	3,6	;RP1=0, select bank1
  5769  00D4  00A0               	movwf	??___fladd^(0+128)
  5770  00D5  0820               	movf	??___fladd^(0+128),w
  5771  00D6  1283               	bcf	3,5	;RP0=0, select bank0
  5772  00D7  1303               	bcf	3,6	;RP1=0, select bank0
  5773  00D8  00E6               	movwf	___fladd@a
  5774  00D9                     l2168:
  5775  00D9  0863               	movf	___fladd@b+1,w
  5776  00DA  1683               	bsf	3,5	;RP0=1, select bank1
  5777  00DB  1303               	bcf	3,6	;RP1=0, select bank1
  5778  00DC  00A0               	movwf	??___fladd^(0+128)
  5779  00DD  0820               	movf	??___fladd^(0+128),w
  5780  00DE  1283               	bcf	3,5	;RP0=0, select bank0
  5781  00DF  1303               	bcf	3,6	;RP1=0, select bank0
  5782  00E0  00ED               	movwf	___fladd@grs
  5783  00E1                     l2170:
  5784  00E1  0867               	movf	___fladd@a+1,w
  5785  00E2  1683               	bsf	3,5	;RP0=1, select bank1
  5786  00E3  1303               	bcf	3,6	;RP1=0, select bank1
  5787  00E4  00A0               	movwf	??___fladd^(0+128)
  5788  00E5  0820               	movf	??___fladd^(0+128),w
  5789  00E6  1283               	bcf	3,5	;RP0=0, select bank0
  5790  00E7  1303               	bcf	3,6	;RP1=0, select bank0
  5791  00E8  00E3               	movwf	___fladd@b+1
  5792  00E9                     l2172:
  5793  00E9  086D               	movf	___fladd@grs,w
  5794  00EA  1683               	bsf	3,5	;RP0=1, select bank1
  5795  00EB  1303               	bcf	3,6	;RP1=0, select bank1
  5796  00EC  00A0               	movwf	??___fladd^(0+128)
  5797  00ED  0820               	movf	??___fladd^(0+128),w
  5798  00EE  1283               	bcf	3,5	;RP0=0, select bank0
  5799  00EF  1303               	bcf	3,6	;RP1=0, select bank0
  5800  00F0  00E7               	movwf	___fladd@a+1
  5801  00F1                     l2174:
  5802  00F1  0864               	movf	___fladd@b+2,w
  5803  00F2  1683               	bsf	3,5	;RP0=1, select bank1
  5804  00F3  1303               	bcf	3,6	;RP1=0, select bank1
  5805  00F4  00A0               	movwf	??___fladd^(0+128)
  5806  00F5  0820               	movf	??___fladd^(0+128),w
  5807  00F6  1283               	bcf	3,5	;RP0=0, select bank0
  5808  00F7  1303               	bcf	3,6	;RP1=0, select bank0
  5809  00F8  00ED               	movwf	___fladd@grs
  5810  00F9                     l2176:
  5811  00F9  0868               	movf	___fladd@a+2,w
  5812  00FA  1683               	bsf	3,5	;RP0=1, select bank1
  5813  00FB  1303               	bcf	3,6	;RP1=0, select bank1
  5814  00FC  00A0               	movwf	??___fladd^(0+128)
  5815  00FD  0820               	movf	??___fladd^(0+128),w
  5816  00FE  1283               	bcf	3,5	;RP0=0, select bank0
  5817  00FF  1303               	bcf	3,6	;RP1=0, select bank0
  5818  0100  00E4               	movwf	___fladd@b+2
  5819  0101                     l2178:
  5820  0101  086D               	movf	___fladd@grs,w
  5821  0102  1683               	bsf	3,5	;RP0=1, select bank1
  5822  0103  1303               	bcf	3,6	;RP1=0, select bank1
  5823  0104  00A0               	movwf	??___fladd^(0+128)
  5824  0105  0820               	movf	??___fladd^(0+128),w
  5825  0106  1283               	bcf	3,5	;RP0=0, select bank0
  5826  0107  1303               	bcf	3,6	;RP1=0, select bank0
  5827  0108  00E8               	movwf	___fladd@a+2
  5828  0109                     l2180:
  5829  0109  0865               	movf	___fladd@b+3,w
  5830  010A  1683               	bsf	3,5	;RP0=1, select bank1
  5831  010B  1303               	bcf	3,6	;RP1=0, select bank1
  5832  010C  00A0               	movwf	??___fladd^(0+128)
  5833  010D  0820               	movf	??___fladd^(0+128),w
  5834  010E  1283               	bcf	3,5	;RP0=0, select bank0
  5835  010F  1303               	bcf	3,6	;RP1=0, select bank0
  5836  0110  00ED               	movwf	___fladd@grs
  5837  0111                     l2182:
  5838  0111  0869               	movf	___fladd@a+3,w
  5839  0112  1683               	bsf	3,5	;RP0=1, select bank1
  5840  0113  1303               	bcf	3,6	;RP1=0, select bank1
  5841  0114  00A0               	movwf	??___fladd^(0+128)
  5842  0115  0820               	movf	??___fladd^(0+128),w
  5843  0116  1283               	bcf	3,5	;RP0=0, select bank0
  5844  0117  1303               	bcf	3,6	;RP1=0, select bank0
  5845  0118  00E5               	movwf	___fladd@b+3
  5846  0119                     l2184:
  5847  0119  086D               	movf	___fladd@grs,w
  5848  011A  1683               	bsf	3,5	;RP0=1, select bank1
  5849  011B  1303               	bcf	3,6	;RP1=0, select bank1
  5850  011C  00A0               	movwf	??___fladd^(0+128)
  5851  011D  0820               	movf	??___fladd^(0+128),w
  5852  011E  1283               	bcf	3,5	;RP0=0, select bank0
  5853  011F  1303               	bcf	3,6	;RP1=0, select bank0
  5854  0120  00E9               	movwf	___fladd@a+3
  5855  0121                     l2186:
  5856  0121  01ED               	clrf	___fladd@grs
  5857  0122                     l2188:
  5858  0122  086B               	movf	___fladd@aexp,w
  5859  0123  1683               	bsf	3,5	;RP0=1, select bank1
  5860  0124  1303               	bcf	3,6	;RP1=0, select bank1
  5861  0125  00A0               	movwf	??___fladd^(0+128)
  5862  0126  01A1               	clrf	(??___fladd^(0+128)+1)
  5863  0127  0821               	movf	(??___fladd+1)^(0+128),w
  5864  0128  00A3               	movwf	((??___fladd+2)^(0+128)+1)
  5865  0129  1283               	bcf	3,5	;RP0=0, select bank0
  5866  012A  1303               	bcf	3,6	;RP1=0, select bank0
  5867  012B  086C               	movf	___fladd@bexp,w
  5868  012C  1683               	bsf	3,5	;RP0=1, select bank1
  5869  012D  1303               	bcf	3,6	;RP1=0, select bank1
  5870  012E  0220               	subwf	??___fladd^(0+128),w
  5871  012F  00A2               	movwf	(??___fladd+2)^(0+128)
  5872  0130  1C03               	skipc
  5873  0131  03A3               	decf	((??___fladd+2)^(0+128)+1),f
  5874  0132  0823               	movf	(??___fladd+3)^(0+128),w
  5875  0133  3A80               	xorlw	128
  5876  0134  00FF               	movwf	btemp+1
  5877  0135  3080               	movlw	128
  5878  0136  027F               	subwf	btemp+1,w
  5879  0137  1D03               	skipz
  5880  0138  293B               	goto	u2155
  5881  0139  301A               	movlw	26
  5882  013A  0222               	subwf	(??___fladd+2)^(0+128),w
  5883  013B                     u2155:
  5884  013B  1C03               	skipc
  5885  013C  293E               	goto	u2151
  5886  013D  293F               	goto	u2150
  5887  013E                     u2151:
  5888  013E  2990               	goto	l2204
  5889  013F                     u2150:
  5890  013F                     l2190:
  5891  013F  1283               	bcf	3,5	;RP0=0, select bank0
  5892  0140  1303               	bcf	3,6	;RP1=0, select bank0
  5893  0141  0865               	movf	___fladd@b+3,w
  5894  0142  0464               	iorwf	___fladd@b+2,w
  5895  0143  0463               	iorwf	___fladd@b+1,w
  5896  0144  0462               	iorwf	___fladd@b,w
  5897  0145  1D03               	skipz
  5898  0146  2948               	goto	u2161
  5899  0147  294A               	goto	u2160
  5900  0148                     u2161:
  5901  0148  3001               	movlw	1
  5902  0149  294B               	goto	u2170
  5903  014A                     u2160:
  5904  014A  3000               	movlw	0
  5905  014B                     u2170:
  5906  014B  1683               	bsf	3,5	;RP0=1, select bank1
  5907  014C  1303               	bcf	3,6	;RP1=0, select bank1
  5908  014D  00A0               	movwf	??___fladd^(0+128)
  5909  014E  0820               	movf	??___fladd^(0+128),w
  5910  014F  1283               	bcf	3,5	;RP0=0, select bank0
  5911  0150  1303               	bcf	3,6	;RP1=0, select bank0
  5912  0151  00ED               	movwf	___fladd@grs
  5913  0152  3000               	movlw	0
  5914  0153  00E5               	movwf	___fladd@b+3
  5915  0154  3000               	movlw	0
  5916  0155  00E4               	movwf	___fladd@b+2
  5917  0156  3000               	movlw	0
  5918  0157  00E3               	movwf	___fladd@b+1
  5919  0158  3000               	movlw	0
  5920  0159  00E2               	movwf	___fladd@b
  5921  015A  086B               	movf	___fladd@aexp,w
  5922  015B  1683               	bsf	3,5	;RP0=1, select bank1
  5923  015C  1303               	bcf	3,6	;RP1=0, select bank1
  5924  015D  00A0               	movwf	??___fladd^(0+128)
  5925  015E  0820               	movf	??___fladd^(0+128),w
  5926  015F  1283               	bcf	3,5	;RP0=0, select bank0
  5927  0160  1303               	bcf	3,6	;RP1=0, select bank0
  5928  0161  00EC               	movwf	___fladd@bexp
  5929  0162  2998               	goto	l621
  5930  0163                     l623:
  5931  0163  1C6D               	btfss	___fladd@grs,0
  5932  0164  2966               	goto	u2181
  5933  0165  2967               	goto	u2180
  5934  0166                     u2181:
  5935  0166  2974               	goto	l2194
  5936  0167                     u2180:
  5937  0167                     l2192:
  5938  0167  086D               	movf	___fladd@grs,w
  5939  0168  1683               	bsf	3,5	;RP0=1, select bank1
  5940  0169  1303               	bcf	3,6	;RP1=0, select bank1
  5941  016A  00A0               	movwf	??___fladd^(0+128)
  5942  016B  1003               	clrc
  5943  016C  0C20               	rrf	??___fladd^(0+128),w
  5944  016D  3801               	iorlw	1
  5945  016E  00A1               	movwf	(??___fladd+1)^(0+128)
  5946  016F  0821               	movf	(??___fladd+1)^(0+128),w
  5947  0170  1283               	bcf	3,5	;RP0=0, select bank0
  5948  0171  1303               	bcf	3,6	;RP1=0, select bank0
  5949  0172  00ED               	movwf	___fladd@grs
  5950  0173  2976               	goto	l2196
  5951  0174                     l2194:
  5952  0174  1003               	clrc
  5953  0175  0CED               	rrf	___fladd@grs,f
  5954  0176                     l2196:
  5955  0176  1C62               	btfss	___fladd@b,0
  5956  0177  2979               	goto	u2191
  5957  0178  297A               	goto	u2190
  5958  0179                     u2191:
  5959  0179  297B               	goto	l2200
  5960  017A                     u2190:
  5961  017A                     l2198:
  5962  017A  17ED               	bsf	___fladd@grs,7
  5963  017B                     l2200:
  5964  017B  3001               	movlw	1
  5965  017C  1683               	bsf	3,5	;RP0=1, select bank1
  5966  017D  1303               	bcf	3,6	;RP1=0, select bank1
  5967  017E  00A0               	movwf	??___fladd^(0+128)
  5968  017F                     u2205:
  5969  017F  1283               	bcf	3,5	;RP0=0, select bank0
  5970  0180  1303               	bcf	3,6	;RP1=0, select bank0
  5971  0181  0D65               	rlf	___fladd@b+3,w
  5972  0182  0CE5               	rrf	___fladd@b+3,f
  5973  0183  0CE4               	rrf	___fladd@b+2,f
  5974  0184  0CE3               	rrf	___fladd@b+1,f
  5975  0185  0CE2               	rrf	___fladd@b,f
  5976  0186  1683               	bsf	3,5	;RP0=1, select bank1
  5977  0187  1303               	bcf	3,6	;RP1=0, select bank1
  5978  0188  0BA0               	decfsz	(??___fladd^(0+128))& (0+127),f
  5979  0189  297F               	goto	u2205
  5980  018A                     l2202:
  5981  018A  3001               	movlw	1
  5982  018B  00A0               	movwf	??___fladd^(0+128)
  5983  018C  0820               	movf	??___fladd^(0+128),w
  5984  018D  1283               	bcf	3,5	;RP0=0, select bank0
  5985  018E  1303               	bcf	3,6	;RP1=0, select bank0
  5986  018F  07EC               	addwf	___fladd@bexp,f
  5987  0190                     l2204:
  5988  0190  1283               	bcf	3,5	;RP0=0, select bank0
  5989  0191  1303               	bcf	3,6	;RP1=0, select bank0
  5990  0192  086B               	movf	___fladd@aexp,w
  5991  0193  026C               	subwf	___fladd@bexp,w
  5992  0194  1C03               	skipc
  5993  0195  2997               	goto	u2211
  5994  0196  2998               	goto	u2210
  5995  0197                     u2211:
  5996  0197  2963               	goto	l623
  5997  0198                     u2210:
  5998  0198                     l621:
  5999  0198  1B6A               	btfsc	___fladd@signs,6
  6000  0199  299B               	goto	u2221
  6001  019A  299C               	goto	u2220
  6002  019B                     u2221:
  6003  019B  29F3               	goto	l2230
  6004  019C                     u2220:
  6005  019C                     l2206:
  6006  019C  086C               	movf	___fladd@bexp,w
  6007  019D  1D03               	btfss	3,2
  6008  019E  29A0               	goto	u2231
  6009  019F  29A1               	goto	u2230
  6010  01A0                     u2231:
  6011  01A0  29AA               	goto	l2212
  6012  01A1                     u2230:
  6013  01A1                     l2208:
  6014  01A1  3000               	movlw	0
  6015  01A2  00E5               	movwf	?___fladd+3
  6016  01A3  3000               	movlw	0
  6017  01A4  00E4               	movwf	?___fladd+2
  6018  01A5  3000               	movlw	0
  6019  01A6  00E3               	movwf	?___fladd+1
  6020  01A7  3000               	movlw	0
  6021  01A8  00E2               	movwf	?___fladd
  6022  01A9  2B89               	goto	l630
  6023  01AA                     l2212:
  6024  01AA  0866               	movf	___fladd@a,w
  6025  01AB  07E2               	addwf	___fladd@b,f
  6026  01AC  0867               	movf	___fladd@a+1,w
  6027  01AD  1103               	clrz
  6028  01AE  1803               	skipnc
  6029  01AF  3E01               	addlw	1
  6030  01B0  1903               	skipnz
  6031  01B1  29B3               	goto	u2241
  6032  01B2  07E3               	addwf	___fladd@b+1,f
  6033  01B3                     u2241:
  6034  01B3  0868               	movf	___fladd@a+2,w
  6035  01B4  1103               	clrz
  6036  01B5  1803               	skipnc
  6037  01B6  3E01               	addlw	1
  6038  01B7  1903               	skipnz
  6039  01B8  29BA               	goto	u2242
  6040  01B9  07E4               	addwf	___fladd@b+2,f
  6041  01BA                     u2242:
  6042  01BA  0869               	movf	___fladd@a+3,w
  6043  01BB  1103               	clrz
  6044  01BC  1803               	skipnc
  6045  01BD  3E01               	addlw	1
  6046  01BE  1903               	skipnz
  6047  01BF  29C1               	goto	u2243
  6048  01C0  07E5               	addwf	___fladd@b+3,f
  6049  01C1                     u2243:
  6050  01C1                     l2214:
  6051  01C1  1C65               	btfss	___fladd@b+3,0
  6052  01C2  29C4               	goto	u2251
  6053  01C3  29C5               	goto	u2250
  6054  01C4                     u2251:
  6055  01C4  2AE7               	goto	l2264
  6056  01C5                     u2250:
  6057  01C5                     l2216:
  6058  01C5  1C6D               	btfss	___fladd@grs,0
  6059  01C6  29C8               	goto	u2261
  6060  01C7  29C9               	goto	u2260
  6061  01C8                     u2261:
  6062  01C8  29D6               	goto	l2220
  6063  01C9                     u2260:
  6064  01C9                     l2218:
  6065  01C9  086D               	movf	___fladd@grs,w
  6066  01CA  1683               	bsf	3,5	;RP0=1, select bank1
  6067  01CB  1303               	bcf	3,6	;RP1=0, select bank1
  6068  01CC  00A0               	movwf	??___fladd^(0+128)
  6069  01CD  1003               	clrc
  6070  01CE  0C20               	rrf	??___fladd^(0+128),w
  6071  01CF  3801               	iorlw	1
  6072  01D0  00A1               	movwf	(??___fladd+1)^(0+128)
  6073  01D1  0821               	movf	(??___fladd+1)^(0+128),w
  6074  01D2  1283               	bcf	3,5	;RP0=0, select bank0
  6075  01D3  1303               	bcf	3,6	;RP1=0, select bank0
  6076  01D4  00ED               	movwf	___fladd@grs
  6077  01D5  29D8               	goto	l2222
  6078  01D6                     l2220:
  6079  01D6  1003               	clrc
  6080  01D7  0CED               	rrf	___fladd@grs,f
  6081  01D8                     l2222:
  6082  01D8  1C62               	btfss	___fladd@b,0
  6083  01D9  29DB               	goto	u2271
  6084  01DA  29DC               	goto	u2270
  6085  01DB                     u2271:
  6086  01DB  29DD               	goto	l2226
  6087  01DC                     u2270:
  6088  01DC                     l2224:
  6089  01DC  17ED               	bsf	___fladd@grs,7
  6090  01DD                     l2226:
  6091  01DD  3001               	movlw	1
  6092  01DE  1683               	bsf	3,5	;RP0=1, select bank1
  6093  01DF  1303               	bcf	3,6	;RP1=0, select bank1
  6094  01E0  00A0               	movwf	??___fladd^(0+128)
  6095  01E1                     u2285:
  6096  01E1  1283               	bcf	3,5	;RP0=0, select bank0
  6097  01E2  1303               	bcf	3,6	;RP1=0, select bank0
  6098  01E3  0D65               	rlf	___fladd@b+3,w
  6099  01E4  0CE5               	rrf	___fladd@b+3,f
  6100  01E5  0CE4               	rrf	___fladd@b+2,f
  6101  01E6  0CE3               	rrf	___fladd@b+1,f
  6102  01E7  0CE2               	rrf	___fladd@b,f
  6103  01E8  1683               	bsf	3,5	;RP0=1, select bank1
  6104  01E9  1303               	bcf	3,6	;RP1=0, select bank1
  6105  01EA  0BA0               	decfsz	(??___fladd^(0+128))& (0+127),f
  6106  01EB  29E1               	goto	u2285
  6107  01EC                     l2228:
  6108  01EC  3001               	movlw	1
  6109  01ED  00A0               	movwf	??___fladd^(0+128)
  6110  01EE  0820               	movf	??___fladd^(0+128),w
  6111  01EF  1283               	bcf	3,5	;RP0=0, select bank0
  6112  01F0  1303               	bcf	3,6	;RP1=0, select bank0
  6113  01F1  07EC               	addwf	___fladd@bexp,f
  6114  01F2  2AE7               	goto	l2264
  6115  01F3                     l2230:
  6116  01F3  0865               	movf	___fladd@b+3,w
  6117  01F4  3A80               	xorlw	128
  6118  01F5  00FF               	movwf	btemp+1
  6119  01F6  0869               	movf	___fladd@a+3,w
  6120  01F7  3A80               	xorlw	128
  6121  01F8  027F               	subwf	btemp+1,w
  6122  01F9  1D03               	skipz
  6123  01FA  2A05               	goto	u2293
  6124  01FB  0868               	movf	___fladd@a+2,w
  6125  01FC  0264               	subwf	___fladd@b+2,w
  6126  01FD  1D03               	skipz
  6127  01FE  2A05               	goto	u2293
  6128  01FF  0867               	movf	___fladd@a+1,w
  6129  0200  0263               	subwf	___fladd@b+1,w
  6130  0201  1D03               	skipz
  6131  0202  2A05               	goto	u2293
  6132  0203  0866               	movf	___fladd@a,w
  6133  0204  0262               	subwf	___fladd@b,w
  6134  0205                     u2293:
  6135  0205  1803               	skipnc
  6136  0206  2A08               	goto	u2291
  6137  0207  2A09               	goto	u2290
  6138  0208                     u2291:
  6139  0208  2A99               	goto	l2240
  6140  0209                     u2290:
  6141  0209                     l2232:
  6142  0209  30FF               	movlw	255
  6143  020A  1683               	bsf	3,5	;RP0=1, select bank1
  6144  020B  1303               	bcf	3,6	;RP1=0, select bank1
  6145  020C  00A0               	movwf	??___fladd^(0+128)
  6146  020D  30FF               	movlw	255
  6147  020E  00A1               	movwf	(??___fladd^(0+128)+1)
  6148  020F  30FF               	movlw	255
  6149  0210  00A2               	movwf	(??___fladd^(0+128)+2)
  6150  0211  30FF               	movlw	255
  6151  0212  00A3               	movwf	(??___fladd^(0+128)+3)
  6152  0213  1283               	bcf	3,5	;RP0=0, select bank0
  6153  0214  1303               	bcf	3,6	;RP1=0, select bank0
  6154  0215  0866               	movf	___fladd@a,w
  6155  0216  1683               	bsf	3,5	;RP0=1, select bank1
  6156  0217  1303               	bcf	3,6	;RP1=0, select bank1
  6157  0218  00A4               	movwf	(??___fladd+4)^(0+128)
  6158  0219  1283               	bcf	3,5	;RP0=0, select bank0
  6159  021A  1303               	bcf	3,6	;RP1=0, select bank0
  6160  021B  0867               	movf	___fladd@a+1,w
  6161  021C  1683               	bsf	3,5	;RP0=1, select bank1
  6162  021D  1303               	bcf	3,6	;RP1=0, select bank1
  6163  021E  00A5               	movwf	((??___fladd+4)^(0+128)+1)
  6164  021F  1283               	bcf	3,5	;RP0=0, select bank0
  6165  0220  1303               	bcf	3,6	;RP1=0, select bank0
  6166  0221  0868               	movf	___fladd@a+2,w
  6167  0222  1683               	bsf	3,5	;RP0=1, select bank1
  6168  0223  1303               	bcf	3,6	;RP1=0, select bank1
  6169  0224  00A6               	movwf	((??___fladd+4)^(0+128)+2)
  6170  0225  1283               	bcf	3,5	;RP0=0, select bank0
  6171  0226  1303               	bcf	3,6	;RP1=0, select bank0
  6172  0227  0869               	movf	___fladd@a+3,w
  6173  0228  1683               	bsf	3,5	;RP0=1, select bank1
  6174  0229  1303               	bcf	3,6	;RP1=0, select bank1
  6175  022A  00A7               	movwf	((??___fladd+4)^(0+128)+3)
  6176  022B  1283               	bcf	3,5	;RP0=0, select bank0
  6177  022C  1303               	bcf	3,6	;RP1=0, select bank0
  6178  022D  0862               	movf	___fladd@b,w
  6179  022E  1683               	bsf	3,5	;RP0=1, select bank1
  6180  022F  1303               	bcf	3,6	;RP1=0, select bank1
  6181  0230  02A4               	subwf	(??___fladd+4)^(0+128),f
  6182  0231  1283               	bcf	3,5	;RP0=0, select bank0
  6183  0232  1303               	bcf	3,6	;RP1=0, select bank0
  6184  0233  0863               	movf	___fladd@b+1,w
  6185  0234  1C03               	skipc
  6186  0235  0F63               	incfsz	___fladd@b+1,w
  6187  0236  2A38               	goto	u2301
  6188  0237  2A3B               	goto	u2302
  6189  0238                     u2301:
  6190  0238  1683               	bsf	3,5	;RP0=1, select bank1
  6191  0239  1303               	bcf	3,6	;RP1=0, select bank1
  6192  023A  02A5               	subwf	((??___fladd+4)^(0+128)+1),f
  6193  023B                     u2302:
  6194  023B  1283               	bcf	3,5	;RP0=0, select bank0
  6195  023C  1303               	bcf	3,6	;RP1=0, select bank0
  6196  023D  0864               	movf	___fladd@b+2,w
  6197  023E  1C03               	skipc
  6198  023F  0F64               	incfsz	___fladd@b+2,w
  6199  0240  2A42               	goto	u2303
  6200  0241  2A45               	goto	u2304
  6201  0242                     u2303:
  6202  0242  1683               	bsf	3,5	;RP0=1, select bank1
  6203  0243  1303               	bcf	3,6	;RP1=0, select bank1
  6204  0244  02A6               	subwf	((??___fladd+4)^(0+128)+2),f
  6205  0245                     u2304:
  6206  0245  1283               	bcf	3,5	;RP0=0, select bank0
  6207  0246  1303               	bcf	3,6	;RP1=0, select bank0
  6208  0247  0865               	movf	___fladd@b+3,w
  6209  0248  1C03               	skipc
  6210  0249  0F65               	incfsz	___fladd@b+3,w
  6211  024A  2A4C               	goto	u2305
  6212  024B  2A4F               	goto	u2306
  6213  024C                     u2305:
  6214  024C  1683               	bsf	3,5	;RP0=1, select bank1
  6215  024D  1303               	bcf	3,6	;RP1=0, select bank1
  6216  024E  02A7               	subwf	((??___fladd+4)^(0+128)+3),f
  6217  024F                     u2306:
  6218  024F  1283               	bcf	3,5	;RP0=0, select bank0
  6219  0250  1303               	bcf	3,6	;RP1=0, select bank0
  6220  0251  1683               	bsf	3,5	;RP0=1, select bank1
  6221  0252  1303               	bcf	3,6	;RP1=0, select bank1
  6222  0253  0824               	movf	(??___fladd+4)^(0+128),w
  6223  0254  07A0               	addwf	??___fladd^(0+128),f
  6224  0255  0825               	movf	(??___fladd+5)^(0+128),w
  6225  0256  1803               	skipnc
  6226  0257  0F25               	incfsz	(??___fladd+5)^(0+128),w
  6227  0258  2A5A               	goto	u2310
  6228  0259  2A5B               	goto	u2311
  6229  025A                     u2310:
  6230  025A  07A1               	addwf	(??___fladd^(0+128)+1),f
  6231  025B                     u2311:
  6232  025B  0826               	movf	(??___fladd+6)^(0+128),w
  6233  025C  1803               	skipnc
  6234  025D  0F26               	incfsz	(??___fladd+6)^(0+128),w
  6235  025E  2A60               	goto	u2312
  6236  025F  2A61               	goto	u2313
  6237  0260                     u2312:
  6238  0260  07A2               	addwf	(??___fladd^(0+128)+2),f
  6239  0261                     u2313:
  6240  0261  0827               	movf	(??___fladd+7)^(0+128),w
  6241  0262  1803               	skipnc
  6242  0263  0A27               	incf	(??___fladd+7)^(0+128),w
  6243  0264  07A3               	addwf	(??___fladd^(0+128)+3),f
  6244  0265  0823               	movf	(??___fladd+3)^(0+128),w
  6245  0266  1283               	bcf	3,5	;RP0=0, select bank0
  6246  0267  1303               	bcf	3,6	;RP1=0, select bank0
  6247  0268  00E5               	movwf	___fladd@b+3
  6248  0269  1683               	bsf	3,5	;RP0=1, select bank1
  6249  026A  1303               	bcf	3,6	;RP1=0, select bank1
  6250  026B  0822               	movf	(??___fladd+2)^(0+128),w
  6251  026C  1283               	bcf	3,5	;RP0=0, select bank0
  6252  026D  1303               	bcf	3,6	;RP1=0, select bank0
  6253  026E  00E4               	movwf	___fladd@b+2
  6254  026F  1683               	bsf	3,5	;RP0=1, select bank1
  6255  0270  1303               	bcf	3,6	;RP1=0, select bank1
  6256  0271  0821               	movf	(??___fladd+1)^(0+128),w
  6257  0272  1283               	bcf	3,5	;RP0=0, select bank0
  6258  0273  1303               	bcf	3,6	;RP1=0, select bank0
  6259  0274  00E3               	movwf	___fladd@b+1
  6260  0275  1683               	bsf	3,5	;RP0=1, select bank1
  6261  0276  1303               	bcf	3,6	;RP1=0, select bank1
  6262  0277  0820               	movf	??___fladd^(0+128),w
  6263  0278  1283               	bcf	3,5	;RP0=0, select bank0
  6264  0279  1303               	bcf	3,6	;RP1=0, select bank0
  6265  027A  00E2               	movwf	___fladd@b
  6266  027B                     l2234:
  6267  027B  3080               	movlw	128
  6268  027C  1683               	bsf	3,5	;RP0=1, select bank1
  6269  027D  1303               	bcf	3,6	;RP1=0, select bank1
  6270  027E  00A0               	movwf	??___fladd^(0+128)
  6271  027F  0820               	movf	??___fladd^(0+128),w
  6272  0280  1283               	bcf	3,5	;RP0=0, select bank0
  6273  0281  1303               	bcf	3,6	;RP1=0, select bank0
  6274  0282  06EA               	xorwf	___fladd@signs,f
  6275  0283  09ED               	comf	___fladd@grs,f
  6276  0284  0AED               	incf	___fladd@grs,f
  6277  0285                     l2236:
  6278  0285  086D               	movf	___fladd@grs,w
  6279  0286  1D03               	btfss	3,2
  6280  0287  2A89               	goto	u2321
  6281  0288  2A8A               	goto	u2320
  6282  0289                     u2321:
  6283  0289  2AA7               	goto	l638
  6284  028A                     u2320:
  6285  028A                     l2238:
  6286  028A  3001               	movlw	1
  6287  028B  07E2               	addwf	___fladd@b,f
  6288  028C  3000               	movlw	0
  6289  028D  1803               	skipnc
  6290  028E  3001               	movlw	1
  6291  028F  07E3               	addwf	___fladd@b+1,f
  6292  0290  3000               	movlw	0
  6293  0291  1803               	skipnc
  6294  0292  3001               	movlw	1
  6295  0293  07E4               	addwf	___fladd@b+2,f
  6296  0294  3000               	movlw	0
  6297  0295  1803               	skipnc
  6298  0296  3001               	movlw	1
  6299  0297  07E5               	addwf	___fladd@b+3,f
  6300  0298  2AA7               	goto	l638
  6301  0299                     l2240:
  6302  0299  0866               	movf	___fladd@a,w
  6303  029A  02E2               	subwf	___fladd@b,f
  6304  029B  0867               	movf	___fladd@a+1,w
  6305  029C  1C03               	skipc
  6306  029D  0F67               	incfsz	___fladd@a+1,w
  6307  029E  02E3               	subwf	___fladd@b+1,f
  6308  029F  0868               	movf	___fladd@a+2,w
  6309  02A0  1C03               	skipc
  6310  02A1  0F68               	incfsz	___fladd@a+2,w
  6311  02A2  02E4               	subwf	___fladd@b+2,f
  6312  02A3  0869               	movf	___fladd@a+3,w
  6313  02A4  1C03               	skipc
  6314  02A5  0F69               	incfsz	___fladd@a+3,w
  6315  02A6  02E5               	subwf	___fladd@b+3,f
  6316  02A7                     l638:
  6317  02A7  0865               	movf	___fladd@b+3,w
  6318  02A8  0464               	iorwf	___fladd@b+2,w
  6319  02A9  0463               	iorwf	___fladd@b+1,w
  6320  02AA  0462               	iorwf	___fladd@b,w
  6321  02AB  1D03               	skipz
  6322  02AC  2AAE               	goto	u2331
  6323  02AD  2AAF               	goto	u2330
  6324  02AE                     u2331:
  6325  02AE  2AE3               	goto	l2262
  6326  02AF                     u2330:
  6327  02AF                     l2242:
  6328  02AF  086D               	movf	___fladd@grs,w
  6329  02B0  1D03               	btfss	3,2
  6330  02B1  2AB3               	goto	u2341
  6331  02B2  2AB4               	goto	u2340
  6332  02B3                     u2341:
  6333  02B3  2AE3               	goto	l2262
  6334  02B4                     u2340:
  6335  02B4                     l2244:
  6336  02B4  3000               	movlw	0
  6337  02B5  00E5               	movwf	?___fladd+3
  6338  02B6  3000               	movlw	0
  6339  02B7  00E4               	movwf	?___fladd+2
  6340  02B8  3000               	movlw	0
  6341  02B9  00E3               	movwf	?___fladd+1
  6342  02BA  3000               	movlw	0
  6343  02BB  00E2               	movwf	?___fladd
  6344  02BC  2B89               	goto	l630
  6345  02BD                     l2248:
  6346  02BD  3001               	movlw	1
  6347  02BE  1683               	bsf	3,5	;RP0=1, select bank1
  6348  02BF  1303               	bcf	3,6	;RP1=0, select bank1
  6349  02C0  00A0               	movwf	??___fladd^(0+128)
  6350  02C1                     u2355:
  6351  02C1  1003               	clrc
  6352  02C2  1283               	bcf	3,5	;RP0=0, select bank0
  6353  02C3  1303               	bcf	3,6	;RP1=0, select bank0
  6354  02C4  0DE2               	rlf	___fladd@b,f
  6355  02C5  0DE3               	rlf	___fladd@b+1,f
  6356  02C6  0DE4               	rlf	___fladd@b+2,f
  6357  02C7  0DE5               	rlf	___fladd@b+3,f
  6358  02C8  1683               	bsf	3,5	;RP0=1, select bank1
  6359  02C9  1303               	bcf	3,6	;RP1=0, select bank1
  6360  02CA  0BA0               	decfsz	??___fladd^(0+128),f
  6361  02CB  2AC1               	goto	u2355
  6362  02CC                     l2250:
  6363  02CC  1283               	bcf	3,5	;RP0=0, select bank0
  6364  02CD  1303               	bcf	3,6	;RP1=0, select bank0
  6365  02CE  1FED               	btfss	___fladd@grs,7
  6366  02CF  2AD1               	goto	u2361
  6367  02D0  2AD2               	goto	u2360
  6368  02D1                     u2361:
  6369  02D1  2AD3               	goto	l642
  6370  02D2                     u2360:
  6371  02D2                     l2252:
  6372  02D2  1462               	bsf	___fladd@b,0
  6373  02D3                     l642:
  6374  02D3  1C6D               	btfss	___fladd@grs,0
  6375  02D4  2AD6               	goto	u2371
  6376  02D5  2AD7               	goto	u2370
  6377  02D6                     u2371:
  6378  02D6  2ADA               	goto	l2256
  6379  02D7                     u2370:
  6380  02D7                     l2254:
  6381  02D7  1403               	setc
  6382  02D8  0DED               	rlf	___fladd@grs,f
  6383  02D9  2ADC               	goto	l2258
  6384  02DA                     l2256:
  6385  02DA  1003               	clrc
  6386  02DB  0DED               	rlf	___fladd@grs,f
  6387  02DC                     l2258:
  6388  02DC  086C               	movf	___fladd@bexp,w
  6389  02DD  1903               	btfsc	3,2
  6390  02DE  2AE0               	goto	u2381
  6391  02DF  2AE1               	goto	u2380
  6392  02E0                     u2381:
  6393  02E0  2AE3               	goto	l2262
  6394  02E1                     u2380:
  6395  02E1                     l2260:
  6396  02E1  3001               	movlw	1
  6397  02E2  02EC               	subwf	___fladd@bexp,f
  6398  02E3                     l2262:
  6399  02E3  1FE4               	btfss	___fladd@b+2,7
  6400  02E4  2AE6               	goto	u2391
  6401  02E5  2AE7               	goto	u2390
  6402  02E6                     u2391:
  6403  02E6  2ABD               	goto	l2248
  6404  02E7                     u2390:
  6405  02E7                     l2264:
  6406  02E7  01EB               	clrf	___fladd@aexp
  6407  02E8                     l2266:
  6408  02E8  1FED               	btfss	___fladd@grs,7
  6409  02E9  2AEB               	goto	u2401
  6410  02EA  2AEC               	goto	u2400
  6411  02EB                     u2401:
  6412  02EB  2AFA               	goto	l2274
  6413  02EC                     u2400:
  6414  02EC                     l2268:
  6415  02EC  086D               	movf	___fladd@grs,w
  6416  02ED  397F               	andlw	127
  6417  02EE  1903               	btfsc	3,2
  6418  02EF  2AF1               	goto	u2411
  6419  02F0  2AF2               	goto	u2410
  6420  02F1                     u2411:
  6421  02F1  2AF5               	goto	l648
  6422  02F2                     u2410:
  6423  02F2                     l2270:
  6424  02F2  01EB               	clrf	___fladd@aexp
  6425  02F3  0AEB               	incf	___fladd@aexp,f
  6426  02F4  2AFA               	goto	l2274
  6427  02F5                     l648:
  6428  02F5  1C62               	btfss	___fladd@b,0
  6429  02F6  2AF8               	goto	u2421
  6430  02F7  2AF9               	goto	u2420
  6431  02F8                     u2421:
  6432  02F8  2AFA               	goto	l2274
  6433  02F9                     u2420:
  6434  02F9  2AF2               	goto	l2270
  6435  02FA                     l2274:
  6436  02FA  086B               	movf	___fladd@aexp,w
  6437  02FB  1903               	btfsc	3,2
  6438  02FC  2AFE               	goto	u2431
  6439  02FD  2AFF               	goto	u2430
  6440  02FE                     u2431:
  6441  02FE  2B53               	goto	l651
  6442  02FF                     u2430:
  6443  02FF                     l2276:
  6444  02FF  3001               	movlw	1
  6445  0300  07E2               	addwf	___fladd@b,f
  6446  0301  3000               	movlw	0
  6447  0302  1803               	skipnc
  6448  0303  3001               	movlw	1
  6449  0304  07E3               	addwf	___fladd@b+1,f
  6450  0305  3000               	movlw	0
  6451  0306  1803               	skipnc
  6452  0307  3001               	movlw	1
  6453  0308  07E4               	addwf	___fladd@b+2,f
  6454  0309  3000               	movlw	0
  6455  030A  1803               	skipnc
  6456  030B  3001               	movlw	1
  6457  030C  07E5               	addwf	___fladd@b+3,f
  6458  030D                     l2278:
  6459  030D  1C65               	btfss	___fladd@b+3,0
  6460  030E  2B10               	goto	u2441
  6461  030F  2B11               	goto	u2440
  6462  0310                     u2441:
  6463  0310  2B53               	goto	l651
  6464  0311                     u2440:
  6465  0311                     l2280:
  6466  0311  0862               	movf	___fladd@b,w
  6467  0312  1683               	bsf	3,5	;RP0=1, select bank1
  6468  0313  1303               	bcf	3,6	;RP1=0, select bank1
  6469  0314  00A0               	movwf	??___fladd^(0+128)
  6470  0315  1283               	bcf	3,5	;RP0=0, select bank0
  6471  0316  1303               	bcf	3,6	;RP1=0, select bank0
  6472  0317  0863               	movf	___fladd@b+1,w
  6473  0318  1683               	bsf	3,5	;RP0=1, select bank1
  6474  0319  1303               	bcf	3,6	;RP1=0, select bank1
  6475  031A  00A1               	movwf	(??___fladd^(0+128)+1)
  6476  031B  1283               	bcf	3,5	;RP0=0, select bank0
  6477  031C  1303               	bcf	3,6	;RP1=0, select bank0
  6478  031D  0864               	movf	___fladd@b+2,w
  6479  031E  1683               	bsf	3,5	;RP0=1, select bank1
  6480  031F  1303               	bcf	3,6	;RP1=0, select bank1
  6481  0320  00A2               	movwf	(??___fladd^(0+128)+2)
  6482  0321  1283               	bcf	3,5	;RP0=0, select bank0
  6483  0322  1303               	bcf	3,6	;RP1=0, select bank0
  6484  0323  0865               	movf	___fladd@b+3,w
  6485  0324  1683               	bsf	3,5	;RP0=1, select bank1
  6486  0325  1303               	bcf	3,6	;RP1=0, select bank1
  6487  0326  00A3               	movwf	(??___fladd^(0+128)+3)
  6488  0327  3001               	movlw	1
  6489  0328  00A4               	movwf	(??___fladd+4)^(0+128)
  6490  0329                     u2455:
  6491  0329  0D23               	rlf	(??___fladd^(0+128)+3),w
  6492  032A  0CA3               	rrf	(??___fladd^(0+128)+3),f
  6493  032B  0CA2               	rrf	(??___fladd^(0+128)+2),f
  6494  032C  0CA1               	rrf	(??___fladd^(0+128)+1),f
  6495  032D  0CA0               	rrf	??___fladd^(0+128),f
  6496  032E                     u2450:
  6497  032E  0BA4               	decfsz	(??___fladd+4)^(0+128),f
  6498  032F  2B29               	goto	u2455
  6499  0330  0823               	movf	(??___fladd+3)^(0+128),w
  6500  0331  1283               	bcf	3,5	;RP0=0, select bank0
  6501  0332  1303               	bcf	3,6	;RP1=0, select bank0
  6502  0333  00E5               	movwf	___fladd@b+3
  6503  0334  1683               	bsf	3,5	;RP0=1, select bank1
  6504  0335  1303               	bcf	3,6	;RP1=0, select bank1
  6505  0336  0822               	movf	(??___fladd+2)^(0+128),w
  6506  0337  1283               	bcf	3,5	;RP0=0, select bank0
  6507  0338  1303               	bcf	3,6	;RP1=0, select bank0
  6508  0339  00E4               	movwf	___fladd@b+2
  6509  033A  1683               	bsf	3,5	;RP0=1, select bank1
  6510  033B  1303               	bcf	3,6	;RP1=0, select bank1
  6511  033C  0821               	movf	(??___fladd+1)^(0+128),w
  6512  033D  1283               	bcf	3,5	;RP0=0, select bank0
  6513  033E  1303               	bcf	3,6	;RP1=0, select bank0
  6514  033F  00E3               	movwf	___fladd@b+1
  6515  0340  1683               	bsf	3,5	;RP0=1, select bank1
  6516  0341  1303               	bcf	3,6	;RP1=0, select bank1
  6517  0342  0820               	movf	??___fladd^(0+128),w
  6518  0343  1283               	bcf	3,5	;RP0=0, select bank0
  6519  0344  1303               	bcf	3,6	;RP1=0, select bank0
  6520  0345  00E2               	movwf	___fladd@b
  6521  0346  0A6C               	incf	___fladd@bexp,w
  6522  0347  1903               	btfsc	3,2
  6523  0348  2B4A               	goto	u2461
  6524  0349  2B4B               	goto	u2460
  6525  034A                     u2461:
  6526  034A  2B53               	goto	l651
  6527  034B                     u2460:
  6528  034B                     l2282:
  6529  034B  3001               	movlw	1
  6530  034C  1683               	bsf	3,5	;RP0=1, select bank1
  6531  034D  1303               	bcf	3,6	;RP1=0, select bank1
  6532  034E  00A0               	movwf	??___fladd^(0+128)
  6533  034F  0820               	movf	??___fladd^(0+128),w
  6534  0350  1283               	bcf	3,5	;RP0=0, select bank0
  6535  0351  1303               	bcf	3,6	;RP1=0, select bank0
  6536  0352  07EC               	addwf	___fladd@bexp,f
  6537  0353                     l651:
  6538  0353  0A6C               	incf	___fladd@bexp,w
  6539  0354  1903               	btfsc	3,2
  6540  0355  2B57               	goto	u2471
  6541  0356  2B58               	goto	u2470
  6542  0357                     u2471:
  6543  0357  2B5D               	goto	l2286
  6544  0358                     u2470:
  6545  0358                     l2284:
  6546  0358  086C               	movf	___fladd@bexp,w
  6547  0359  1D03               	btfss	3,2
  6548  035A  2B5C               	goto	u2481
  6549  035B  2B5D               	goto	u2480
  6550  035C                     u2481:
  6551  035C  2B6B               	goto	l2292
  6552  035D                     u2480:
  6553  035D                     l2286:
  6554  035D  3000               	movlw	0
  6555  035E  00E5               	movwf	___fladd@b+3
  6556  035F  3000               	movlw	0
  6557  0360  00E4               	movwf	___fladd@b+2
  6558  0361  3000               	movlw	0
  6559  0362  00E3               	movwf	___fladd@b+1
  6560  0363  3000               	movlw	0
  6561  0364  00E2               	movwf	___fladd@b
  6562  0365                     l2288:
  6563  0365  086C               	movf	___fladd@bexp,w
  6564  0366  1D03               	btfss	3,2
  6565  0367  2B69               	goto	u2491
  6566  0368  2B6A               	goto	u2490
  6567  0369                     u2491:
  6568  0369  2B6B               	goto	l2292
  6569  036A                     u2490:
  6570  036A                     l2290:
  6571  036A  01EA               	clrf	___fladd@signs
  6572  036B                     l2292:
  6573  036B  1C6C               	btfss	___fladd@bexp,0
  6574  036C  2B6E               	goto	u2501
  6575  036D  2B6F               	goto	u2500
  6576  036E                     u2501:
  6577  036E  2B71               	goto	l2296
  6578  036F                     u2500:
  6579  036F                     l2294:
  6580  036F  17E4               	bsf	___fladd@b+2,7
  6581  0370  2B79               	goto	l659
  6582  0371                     l2296:
  6583  0371  307F               	movlw	127
  6584  0372  1683               	bsf	3,5	;RP0=1, select bank1
  6585  0373  1303               	bcf	3,6	;RP1=0, select bank1
  6586  0374  00A0               	movwf	??___fladd^(0+128)
  6587  0375  0820               	movf	??___fladd^(0+128),w
  6588  0376  1283               	bcf	3,5	;RP0=0, select bank0
  6589  0377  1303               	bcf	3,6	;RP1=0, select bank0
  6590  0378  05E4               	andwf	___fladd@b+2,f
  6591  0379                     l659:
  6592  0379  086C               	movf	___fladd@bexp,w
  6593  037A  1683               	bsf	3,5	;RP0=1, select bank1
  6594  037B  1303               	bcf	3,6	;RP1=0, select bank1
  6595  037C  00A0               	movwf	??___fladd^(0+128)
  6596  037D  1003               	clrc
  6597  037E  0C20               	rrf	??___fladd^(0+128),w
  6598  037F  00A1               	movwf	(??___fladd+1)^(0+128)
  6599  0380  0821               	movf	(??___fladd+1)^(0+128),w
  6600  0381  1283               	bcf	3,5	;RP0=0, select bank0
  6601  0382  1303               	bcf	3,6	;RP1=0, select bank0
  6602  0383  00E5               	movwf	___fladd@b+3
  6603  0384                     l2298:
  6604  0384  1FEA               	btfss	___fladd@signs,7
  6605  0385  2B87               	goto	u2511
  6606  0386  2B88               	goto	u2510
  6607  0387                     u2511:
  6608  0387  2B89               	goto	l660
  6609  0388                     u2510:
  6610  0388                     l2300:
  6611  0388  17E5               	bsf	___fladd@b+3,7
  6612  0389                     l660:
  6613  0389                     l630:
  6614  0389  0008               	return
  6615  038A                     __end_of___fladd:
  6616                           
  6617                           	psect	text16
  6618  1742                     __ptext16:	
  6619 ;; *************** function _adc_start *****************
  6620 ;; Defined at:
  6621 ;;		line 39 in file "adc2.c"
  6622 ;; Parameters:    Size  Location     Type
  6623 ;;  channel         1    wreg     unsigned char 
  6624 ;; Auto vars:     Size  Location     Type
  6625 ;;  channel         1    1[BANK0 ] unsigned char 
  6626 ;; Return value:  Size  Location     Type
  6627 ;;                  1    wreg      void 
  6628 ;; Registers used:
  6629 ;;		wreg, status,2, status,0
  6630 ;; Tracked objects:
  6631 ;;		On entry : 0/0
  6632 ;;		On exit  : 0/0
  6633 ;;		Unchanged: 0/0
  6634 ;; Data sizes:     COMMON   BANK0   BANK1   BANK3   BANK2
  6635 ;;      Params:         0       0       0       0       0
  6636 ;;      Locals:         0       1       0       0       0
  6637 ;;      Temps:          0       1       0       0       0
  6638 ;;      Totals:         0       2       0       0       0
  6639 ;;Total ram usage:        2 bytes
  6640 ;; Hardware stack levels used: 1
  6641 ;; Hardware stack levels required when called: 2
  6642 ;; This function calls:
  6643 ;;		Nothing
  6644 ;; This function is called by:
  6645 ;;		_main
  6646 ;; This function uses a non-reentrant model
  6647 ;;
  6648                           
  6649  1742                     _adc_start:	
  6650                           ;psect for function _adc_start
  6651                           
  6652                           
  6653                           ;incstack = 0
  6654                           ; Regs used in _adc_start: [wreg+status,2+status,0]
  6655                           ;adc_start@channel stored from wreg
  6656  1742  1283               	bcf	3,5	;RP0=0, select bank0
  6657  1743  1303               	bcf	3,6	;RP1=0, select bank0
  6658  1744  00A1               	movwf	adc_start@channel
  6659  1745                     l2668:
  6660                           
  6661                           ;adc2.c: 41:     if(channel < 14){
  6662  1745  300E               	movlw	14
  6663  1746  0221               	subwf	adc_start@channel,w
  6664  1747  1803               	skipnc
  6665  1748  2F4A               	goto	u3321
  6666  1749  2F4B               	goto	u3320
  6667  174A                     u3321:
  6668  174A  2F55               	goto	l2672
  6669  174B                     u3320:
  6670  174B                     l2670:
  6671                           
  6672                           ;adc2.c: 42:         ADCON0bits.CHS = channel;
  6673  174B  0821               	movf	adc_start@channel,w
  6674  174C  00A0               	movwf	??_adc_start
  6675  174D  0DA0               	rlf	??_adc_start,f
  6676  174E  0DA0               	rlf	??_adc_start,f
  6677  174F  081F               	movf	31,w	;volatile
  6678  1750  0620               	xorwf	??_adc_start,w
  6679  1751  39C3               	andlw	-61
  6680  1752  0620               	xorwf	??_adc_start,w
  6681  1753  009F               	movwf	31	;volatile
  6682                           
  6683                           ;adc2.c: 43:     }
  6684  1754  2F57               	goto	l2674
  6685  1755                     l2672:
  6686                           
  6687                           ;adc2.c: 45:         ADCON0bits.CHS = 0;
  6688  1755  30C3               	movlw	-61
  6689  1756  059F               	andwf	31,f	;volatile
  6690  1757                     l2674:
  6691                           
  6692                           ;adc2.c: 47:     _delay((unsigned long)((40)*(8000000/4000000.0)));
  6693  1757  3019               	movlw	25
  6694  1758  1283               	bcf	3,5	;RP0=0, select bank0
  6695  1759  1303               	bcf	3,6	;RP1=0, select bank0
  6696  175A  00A0               	movwf	??_adc_start
  6697  175B                     u3697:
  6698  175B  0BA0               	decfsz	??_adc_start,f
  6699  175C  2F5B               	goto	u3697
  6700  175D  2F5E               	nop2
  6701  175E                     l2676:
  6702                           
  6703                           ;adc2.c: 48:     ADCON0bits.GO_nDONE = 1;
  6704  175E  1283               	bcf	3,5	;RP0=0, select bank0
  6705  175F  1303               	bcf	3,6	;RP1=0, select bank0
  6706  1760  149F               	bsf	31,1	;volatile
  6707  1761                     l140:	
  6708                           ;adc2.c: 49:     while (ADCON0bits.GO){}
  6709                           
  6710  1761  189F               	btfsc	31,1	;volatile
  6711  1762  2F64               	goto	u3331
  6712  1763  2F65               	goto	u3330
  6713  1764                     u3331:
  6714  1764  2F61               	goto	l140
  6715  1765                     u3330:
  6716  1765                     l143:
  6717  1765  0008               	return
  6718  1766                     __end_of_adc_start:
  6719                           
  6720                           	psect	text17
  6721  16F7                     __ptext17:	
  6722 ;; *************** function ___bmul *****************
  6723 ;; Defined at:
  6724 ;;		line 4 in file "C:\Program Files\Microchip\xc8\v2.35\pic\sources\c90\common\Umul8.c"
  6725 ;; Parameters:    Size  Location     Type
  6726 ;;  multiplier      1    wreg     unsigned char 
  6727 ;;  multiplicand    1    0[BANK0 ] unsigned char 
  6728 ;; Auto vars:     Size  Location     Type
  6729 ;;  multiplier      1    3[BANK0 ] unsigned char 
  6730 ;;  product         1    2[BANK0 ] unsigned char 
  6731 ;; Return value:  Size  Location     Type
  6732 ;;                  1    wreg      unsigned char 
  6733 ;; Registers used:
  6734 ;;		wreg, status,2, status,0
  6735 ;; Tracked objects:
  6736 ;;		On entry : 0/0
  6737 ;;		On exit  : 0/0
  6738 ;;		Unchanged: 0/0
  6739 ;; Data sizes:     COMMON   BANK0   BANK1   BANK3   BANK2
  6740 ;;      Params:         0       1       0       0       0
  6741 ;;      Locals:         0       2       0       0       0
  6742 ;;      Temps:          0       1       0       0       0
  6743 ;;      Totals:         0       4       0       0       0
  6744 ;;Total ram usage:        4 bytes
  6745 ;; Hardware stack levels used: 1
  6746 ;; Hardware stack levels required when called: 2
  6747 ;; This function calls:
  6748 ;;		Nothing
  6749 ;; This function is called by:
  6750 ;;		_main
  6751 ;; This function uses a non-reentrant model
  6752 ;;
  6753                           
  6754  16F7                     ___bmul:	
  6755                           ;psect for function ___bmul
  6756                           
  6757                           
  6758                           ;incstack = 0
  6759                           ; Regs used in ___bmul: [wreg+status,2+status,0]
  6760                           ;___bmul@multiplier stored from wreg
  6761  16F7  1283               	bcf	3,5	;RP0=0, select bank0
  6762  16F8  1303               	bcf	3,6	;RP1=0, select bank0
  6763  16F9  00A3               	movwf	___bmul@multiplier
  6764  16FA                     l2764:
  6765  16FA  01A2               	clrf	___bmul@product
  6766  16FB                     l2766:
  6767  16FB  1C23               	btfss	___bmul@multiplier,0
  6768  16FC  2EFE               	goto	u3461
  6769  16FD  2EFF               	goto	u3460
  6770  16FE                     u3461:
  6771  16FE  2F03               	goto	l2770
  6772  16FF                     u3460:
  6773  16FF                     l2768:
  6774  16FF  0820               	movf	___bmul@multiplicand,w
  6775  1700  00A1               	movwf	??___bmul
  6776  1701  0821               	movf	??___bmul,w
  6777  1702  07A2               	addwf	___bmul@product,f
  6778  1703                     l2770:
  6779  1703  1003               	clrc
  6780  1704  0DA0               	rlf	___bmul@multiplicand,f
  6781  1705                     l2772:
  6782  1705  1003               	clrc
  6783  1706  0CA3               	rrf	___bmul@multiplier,f
  6784  1707  0823               	movf	___bmul@multiplier,w
  6785  1708  1D03               	btfss	3,2
  6786  1709  2F0B               	goto	u3471
  6787  170A  2F0C               	goto	u3470
  6788  170B                     u3471:
  6789  170B  2EFB               	goto	l2766
  6790  170C                     u3470:
  6791  170C                     l2774:
  6792  170C  0822               	movf	___bmul@product,w
  6793  170D                     l350:
  6794  170D  0008               	return
  6795  170E                     __end_of___bmul:
  6796                           
  6797                           	psect	text18
  6798  0864                     __ptext18:	
  6799 ;; *************** function _Lcd_Write_String *****************
  6800 ;; Defined at:
  6801 ;;		line 70 in file "LCD_LAB2.c"
  6802 ;; Parameters:    Size  Location     Type
  6803 ;;  a               2    3[BANK0 ] PTR unsigned char 
  6804 ;;		 -> STR_3(17), s(1), STR_1(19), 
  6805 ;; Auto vars:     Size  Location     Type
  6806 ;;  i               2    8[BANK0 ] int 
  6807 ;; Return value:  Size  Location     Type
  6808 ;;                  1    wreg      void 
  6809 ;; Registers used:
  6810 ;;		wreg, fsr0l, fsr0h, status,2, status,0, btemp+1, pclath, cstack
  6811 ;; Tracked objects:
  6812 ;;		On entry : 0/0
  6813 ;;		On exit  : 0/0
  6814 ;;		Unchanged: 0/0
  6815 ;; Data sizes:     COMMON   BANK0   BANK1   BANK3   BANK2
  6816 ;;      Params:         0       2       0       0       0
  6817 ;;      Locals:         0       2       0       0       0
  6818 ;;      Temps:          0       3       0       0       0
  6819 ;;      Totals:         0       7       0       0       0
  6820 ;;Total ram usage:        7 bytes
  6821 ;; Hardware stack levels used: 1
  6822 ;; Hardware stack levels required when called: 4
  6823 ;; This function calls:
  6824 ;;		_Lcd_Write_Char
  6825 ;; This function is called by:
  6826 ;;		_main
  6827 ;; This function uses a non-reentrant model
  6828 ;;
  6829                           
  6830  0864                     _Lcd_Write_String:	
  6831                           ;psect for function _Lcd_Write_String
  6832                           
  6833  0864                     l3088:	
  6834                           ;incstack = 0
  6835                           ; Regs used in _Lcd_Write_String: [wreg-fsr0h+status,2+status,0+btemp+1+pclath+cstack]
  6836                           
  6837                           
  6838                           ;LCD_LAB2.c: 71:     int i;;LCD_LAB2.c: 72:     for (i = 0; a[i] != '\0'; i++)
  6839  0864  1283               	bcf	3,5	;RP0=0, select bank0
  6840  0865  1303               	bcf	3,6	;RP1=0, select bank0
  6841  0866  01A8               	clrf	Lcd_Write_String@i
  6842  0867  01A9               	clrf	Lcd_Write_String@i+1
  6843  0868  288D               	goto	l3094
  6844  0869                     l3090:
  6845                           
  6846                           ;LCD_LAB2.c: 73:         Lcd_Write_Char(a[i]);
  6847  0869  0828               	movf	Lcd_Write_String@i,w
  6848  086A  0723               	addwf	Lcd_Write_String@a,w
  6849  086B  00A6               	movwf	??_Lcd_Write_String+1
  6850  086C  0824               	movf	Lcd_Write_String@a+1,w
  6851  086D  00A5               	movwf	??_Lcd_Write_String
  6852  086E  1803               	skipnc
  6853  086F  0AA5               	incf	??_Lcd_Write_String,f
  6854  0870  1FA8               	btfss	Lcd_Write_String@i,7
  6855  0871  2873               	goto	u3610
  6856  0872  03A5               	decf	??_Lcd_Write_String,f
  6857  0873                     u3610:
  6858  0873  1283               	bcf	3,5	;RP0=0, select bank0
  6859  0874  1303               	bcf	3,6	;RP1=0, select bank0
  6860  0875  0825               	movf	??_Lcd_Write_String,w
  6861  0876  00A7               	movwf	??_Lcd_Write_String+2
  6862  0877  0827               	movf	??_Lcd_Write_String+2,w
  6863  0878  00FF               	movwf	btemp+1
  6864  0879  0826               	movf	??_Lcd_Write_String+1,w
  6865  087A  0084               	movwf	4
  6866  087B  120A  158A  2000  120A  158A  	fcall	stringtab
  6867  0880  160A  118A  270E  120A  158A  	fcall	_Lcd_Write_Char
  6868  0885                     l3092:
  6869  0885  3001               	movlw	1
  6870  0886  1283               	bcf	3,5	;RP0=0, select bank0
  6871  0887  1303               	bcf	3,6	;RP1=0, select bank0
  6872  0888  07A8               	addwf	Lcd_Write_String@i,f
  6873  0889  1803               	skipnc
  6874  088A  0AA9               	incf	Lcd_Write_String@i+1,f
  6875  088B  3000               	movlw	0
  6876  088C  07A9               	addwf	Lcd_Write_String@i+1,f
  6877  088D                     l3094:
  6878  088D  0828               	movf	Lcd_Write_String@i,w
  6879  088E  0723               	addwf	Lcd_Write_String@a,w
  6880  088F  00A6               	movwf	??_Lcd_Write_String+1
  6881  0890  0824               	movf	Lcd_Write_String@a+1,w
  6882  0891  00A5               	movwf	??_Lcd_Write_String
  6883  0892  1803               	skipnc
  6884  0893  0AA5               	incf	??_Lcd_Write_String,f
  6885  0894  1FA8               	btfss	Lcd_Write_String@i,7
  6886  0895  2897               	goto	u3620
  6887  0896  03A5               	decf	??_Lcd_Write_String,f
  6888  0897                     u3620:
  6889  0897  1283               	bcf	3,5	;RP0=0, select bank0
  6890  0898  1303               	bcf	3,6	;RP1=0, select bank0
  6891  0899  0825               	movf	??_Lcd_Write_String,w
  6892  089A  00A7               	movwf	??_Lcd_Write_String+2
  6893  089B  0827               	movf	??_Lcd_Write_String+2,w
  6894  089C  00FF               	movwf	btemp+1
  6895  089D  0826               	movf	??_Lcd_Write_String+1,w
  6896  089E  0084               	movwf	4
  6897  089F  120A  158A  2000  120A  158A  	fcall	stringtab
  6898  08A4  3A00               	xorlw	0
  6899  08A5  1D03               	skipz
  6900  08A6  28A8               	goto	u3631
  6901  08A7  28A9               	goto	u3630
  6902  08A8                     u3631:
  6903  08A8  2869               	goto	l3090
  6904  08A9                     u3630:
  6905  08A9                     l181:
  6906  08A9  0008               	return
  6907  08AA                     __end_of_Lcd_Write_String:
  6908                           
  6909                           	psect	text19
  6910  170E                     __ptext19:	
  6911 ;; *************** function _Lcd_Write_Char *****************
  6912 ;; Defined at:
  6913 ;;		line 60 in file "LCD_LAB2.c"
  6914 ;; Parameters:    Size  Location     Type
  6915 ;;  a               1    wreg     unsigned char 
  6916 ;; Auto vars:     Size  Location     Type
  6917 ;;  a               1    2[BANK0 ] unsigned char 
  6918 ;; Return value:  Size  Location     Type
  6919 ;;                  1    wreg      void 
  6920 ;; Registers used:
  6921 ;;		wreg, status,2, status,0, pclath, cstack
  6922 ;; Tracked objects:
  6923 ;;		On entry : 0/0
  6924 ;;		On exit  : 0/0
  6925 ;;		Unchanged: 0/0
  6926 ;; Data sizes:     COMMON   BANK0   BANK1   BANK3   BANK2
  6927 ;;      Params:         0       0       0       0       0
  6928 ;;      Locals:         0       1       0       0       0
  6929 ;;      Temps:          0       1       0       0       0
  6930 ;;      Totals:         0       2       0       0       0
  6931 ;;Total ram usage:        2 bytes
  6932 ;; Hardware stack levels used: 1
  6933 ;; Hardware stack levels required when called: 3
  6934 ;; This function calls:
  6935 ;;		_Lcd_Port
  6936 ;; This function is called by:
  6937 ;;		_Lcd_Write_String
  6938 ;; This function uses a non-reentrant model
  6939 ;;
  6940                           
  6941  170E                     _Lcd_Write_Char:	
  6942                           ;psect for function _Lcd_Write_Char
  6943                           
  6944                           
  6945                           ;incstack = 0
  6946                           ; Regs used in _Lcd_Write_Char: [wreg+status,2+status,0+pclath+cstack]
  6947                           ;Lcd_Write_Char@a stored from wreg
  6948  170E  1283               	bcf	3,5	;RP0=0, select bank0
  6949  170F  1303               	bcf	3,6	;RP1=0, select bank0
  6950  1710  00A2               	movwf	Lcd_Write_Char@a
  6951  1711                     l3028:
  6952                           
  6953                           ;LCD_LAB2.c: 62:     PORTCbits.RC6 = 1;
  6954  1711  1707               	bsf	7,6	;volatile
  6955  1712                     l3030:
  6956                           
  6957                           ;LCD_LAB2.c: 63:     Lcd_Port(a);
  6958  1712  0822               	movf	Lcd_Write_Char@a,w
  6959  1713  160A  118A  26D9  160A  118A  	fcall	_Lcd_Port
  6960  1718                     l3032:
  6961                           
  6962                           ;LCD_LAB2.c: 64:     RC7 = 1;
  6963  1718  1283               	bcf	3,5	;RP0=0, select bank0
  6964  1719  1303               	bcf	3,6	;RP1=0, select bank0
  6965  171A  1787               	bsf	7,7	;volatile
  6966  171B                     l3034:
  6967                           
  6968                           ;LCD_LAB2.c: 65:     _delay((unsigned long)((40)*(8000000/4000000.0)));
  6969  171B  3019               	movlw	25
  6970  171C  1283               	bcf	3,5	;RP0=0, select bank0
  6971  171D  1303               	bcf	3,6	;RP1=0, select bank0
  6972  171E  00A1               	movwf	??_Lcd_Write_Char
  6973  171F                     u3707:
  6974  171F  0BA1               	decfsz	??_Lcd_Write_Char,f
  6975  1720  2F1F               	goto	u3707
  6976  1721  2F22               	nop2
  6977  1722                     l3036:
  6978                           
  6979                           ;LCD_LAB2.c: 66:     RC7 = 0;
  6980  1722  1283               	bcf	3,5	;RP0=0, select bank0
  6981  1723  1303               	bcf	3,6	;RP1=0, select bank0
  6982  1724  1387               	bcf	7,7	;volatile
  6983  1725                     l175:
  6984  1725  0008               	return
  6985  1726                     __end_of_Lcd_Write_Char:
  6986                           
  6987                           	psect	text20
  6988  1766                     __ptext20:	
  6989 ;; *************** function _Lcd_Set_Cursor *****************
  6990 ;; Defined at:
  6991 ;;		line 32 in file "LCD_LAB2.c"
  6992 ;; Parameters:    Size  Location     Type
  6993 ;;  a               1    wreg     unsigned char 
  6994 ;;  b               1    4[BANK0 ] unsigned char 
  6995 ;; Auto vars:     Size  Location     Type
  6996 ;;  a               1    6[BANK0 ] unsigned char 
  6997 ;;  temp            1    7[BANK0 ] unsigned char 
  6998 ;; Return value:  Size  Location     Type
  6999 ;;                  1    wreg      void 
  7000 ;; Registers used:
  7001 ;;		wreg, status,2, status,0, pclath, cstack
  7002 ;; Tracked objects:
  7003 ;;		On entry : 0/0
  7004 ;;		On exit  : 0/0
  7005 ;;		Unchanged: 0/0
  7006 ;; Data sizes:     COMMON   BANK0   BANK1   BANK3   BANK2
  7007 ;;      Params:         0       1       0       0       0
  7008 ;;      Locals:         0       2       0       0       0
  7009 ;;      Temps:          0       1       0       0       0
  7010 ;;      Totals:         0       4       0       0       0
  7011 ;;Total ram usage:        4 bytes
  7012 ;; Hardware stack levels used: 1
  7013 ;; Hardware stack levels required when called: 4
  7014 ;; This function calls:
  7015 ;;		_Lcd_Cmd
  7016 ;; This function is called by:
  7017 ;;		_main
  7018 ;; This function uses a non-reentrant model
  7019 ;;
  7020                           
  7021  1766                     _Lcd_Set_Cursor:	
  7022                           ;psect for function _Lcd_Set_Cursor
  7023                           
  7024                           
  7025                           ;incstack = 0
  7026                           ; Regs used in _Lcd_Set_Cursor: [wreg+status,2+status,0+pclath+cstack]
  7027                           ;Lcd_Set_Cursor@a stored from wreg
  7028  1766  1283               	bcf	3,5	;RP0=0, select bank0
  7029  1767  1303               	bcf	3,6	;RP1=0, select bank0
  7030  1768  00A6               	movwf	Lcd_Set_Cursor@a
  7031  1769                     l3076:
  7032                           
  7033                           ;LCD_LAB2.c: 32: void Lcd_Set_Cursor(char a, char b);LCD_LAB2.c: 33: {;LCD_LAB2.c: 34:  
      +                             char temp;;LCD_LAB2.c: 35:     if (a == 1) {
  7034  1769  0326               	decf	Lcd_Set_Cursor@a,w
  7035  176A  1D03               	btfss	3,2
  7036  176B  2F6D               	goto	u3591
  7037  176C  2F6E               	goto	u3590
  7038  176D                     u3591:
  7039  176D  2F7A               	goto	l3082
  7040  176E                     u3590:
  7041  176E                     l3078:
  7042                           
  7043                           ;LCD_LAB2.c: 36:         temp = 0x80 + b - 1;
  7044  176E  0824               	movf	Lcd_Set_Cursor@b,w
  7045  176F  3E7F               	addlw	127
  7046  1770  00A5               	movwf	??_Lcd_Set_Cursor
  7047  1771  0825               	movf	??_Lcd_Set_Cursor,w
  7048  1772  00A7               	movwf	Lcd_Set_Cursor@temp
  7049  1773                     l3080:
  7050                           
  7051                           ;LCD_LAB2.c: 37:         Lcd_Cmd(temp);
  7052  1773  0827               	movf	Lcd_Set_Cursor@temp,w
  7053  1774  160A  118A  2726  160A  118A  	fcall	_Lcd_Cmd
  7054                           
  7055                           ;LCD_LAB2.c: 38:     } else if (a == 2) {
  7056  1779  2F8B               	goto	l169
  7057  177A                     l3082:
  7058  177A  3002               	movlw	2
  7059  177B  0626               	xorwf	Lcd_Set_Cursor@a,w
  7060  177C  1D03               	btfss	3,2
  7061  177D  2F7F               	goto	u3601
  7062  177E  2F80               	goto	u3600
  7063  177F                     u3601:
  7064  177F  2F8B               	goto	l169
  7065  1780                     u3600:
  7066  1780                     l3084:
  7067                           
  7068                           ;LCD_LAB2.c: 39:         temp = 0xC0 + b - 1;
  7069  1780  0824               	movf	Lcd_Set_Cursor@b,w
  7070  1781  3EBF               	addlw	191
  7071  1782  00A5               	movwf	??_Lcd_Set_Cursor
  7072  1783  0825               	movf	??_Lcd_Set_Cursor,w
  7073  1784  00A7               	movwf	Lcd_Set_Cursor@temp
  7074  1785                     l3086:
  7075                           
  7076                           ;LCD_LAB2.c: 40:         Lcd_Cmd(temp);
  7077  1785  0827               	movf	Lcd_Set_Cursor@temp,w
  7078  1786  160A  118A  2726  160A  118A  	fcall	_Lcd_Cmd
  7079  178B                     l169:
  7080  178B  0008               	return
  7081  178C                     __end_of_Lcd_Set_Cursor:
  7082                           
  7083                           	psect	text21
  7084  093B                     __ptext21:	
  7085 ;; *************** function _Lcd_Init *****************
  7086 ;; Defined at:
  7087 ;;		line 44 in file "LCD_LAB2.c"
  7088 ;; Parameters:    Size  Location     Type
  7089 ;;		None
  7090 ;; Auto vars:     Size  Location     Type
  7091 ;;		None
  7092 ;; Return value:  Size  Location     Type
  7093 ;;                  1    wreg      void 
  7094 ;; Registers used:
  7095 ;;		wreg, status,2, status,0, pclath, cstack
  7096 ;; Tracked objects:
  7097 ;;		On entry : 0/0
  7098 ;;		On exit  : 0/0
  7099 ;;		Unchanged: 0/0
  7100 ;; Data sizes:     COMMON   BANK0   BANK1   BANK3   BANK2
  7101 ;;      Params:         0       0       0       0       0
  7102 ;;      Locals:         0       0       0       0       0
  7103 ;;      Temps:          0       2       0       0       0
  7104 ;;      Totals:         0       2       0       0       0
  7105 ;;Total ram usage:        2 bytes
  7106 ;; Hardware stack levels used: 1
  7107 ;; Hardware stack levels required when called: 4
  7108 ;; This function calls:
  7109 ;;		_Lcd_Cmd
  7110 ;;		_Lcd_Port
  7111 ;; This function is called by:
  7112 ;;		_main
  7113 ;; This function uses a non-reentrant model
  7114 ;;
  7115                           
  7116  093B                     _Lcd_Init:	
  7117                           ;psect for function _Lcd_Init
  7118                           
  7119  093B                     l3060:	
  7120                           ;incstack = 0
  7121                           ; Regs used in _Lcd_Init: [wreg+status,2+status,0+pclath+cstack]
  7122                           
  7123                           
  7124                           ;LCD_LAB2.c: 45:     Lcd_Port(0x00);
  7125  093B  3000               	movlw	0
  7126  093C  160A  118A  26D9  120A  158A  	fcall	_Lcd_Port
  7127  0941                     l3062:
  7128                           
  7129                           ;LCD_LAB2.c: 46:     _delay((unsigned long)((20)*(8000000/4000.0)));
  7130  0941  3034               	movlw	52
  7131  0942  1283               	bcf	3,5	;RP0=0, select bank0
  7132  0943  1303               	bcf	3,6	;RP1=0, select bank0
  7133  0944  00A5               	movwf	??_Lcd_Init+1
  7134  0945  30F1               	movlw	241
  7135  0946  00A4               	movwf	??_Lcd_Init
  7136  0947                     u3717:
  7137  0947  0BA4               	decfsz	??_Lcd_Init,f
  7138  0948  2947               	goto	u3717
  7139  0949  0BA5               	decfsz	??_Lcd_Init+1,f
  7140  094A  2947               	goto	u3717
  7141  094B                     l3064:
  7142                           
  7143                           ;LCD_LAB2.c: 47:     Lcd_Cmd(0x30);
  7144  094B  3030               	movlw	48
  7145  094C  160A  118A  2726  120A  158A  	fcall	_Lcd_Cmd
  7146                           
  7147                           ;LCD_LAB2.c: 48:     _delay((unsigned long)((5)*(8000000/4000.0)));
  7148  0951  300D               	movlw	13
  7149  0952  1283               	bcf	3,5	;RP0=0, select bank0
  7150  0953  1303               	bcf	3,6	;RP1=0, select bank0
  7151  0954  00A5               	movwf	??_Lcd_Init+1
  7152  0955  30FB               	movlw	251
  7153  0956  00A4               	movwf	??_Lcd_Init
  7154  0957                     u3727:
  7155  0957  0BA4               	decfsz	??_Lcd_Init,f
  7156  0958  2957               	goto	u3727
  7157  0959  0BA5               	decfsz	??_Lcd_Init+1,f
  7158  095A  2957               	goto	u3727
  7159  095B                     l3066:
  7160                           
  7161                           ;LCD_LAB2.c: 49:     Lcd_Cmd(0x30);
  7162  095B  3030               	movlw	48
  7163  095C  160A  118A  2726  120A  158A  	fcall	_Lcd_Cmd
  7164  0961                     l3068:
  7165                           
  7166                           ;LCD_LAB2.c: 50:     _delay((unsigned long)((110)*(8000000/4000000.0)));
  7167  0961  3048               	movlw	72
  7168  0962  1283               	bcf	3,5	;RP0=0, select bank0
  7169  0963  1303               	bcf	3,6	;RP1=0, select bank0
  7170  0964  00A4               	movwf	??_Lcd_Init
  7171  0965                     u3737:
  7172  0965  0BA4               	decfsz	??_Lcd_Init,f
  7173  0966  2965               	goto	u3737
  7174  0967  0000               	nop
  7175                           
  7176                           ;LCD_LAB2.c: 51:     Lcd_Cmd(0x30);
  7177  0968  3030               	movlw	48
  7178  0969  160A  118A  2726  120A  158A  	fcall	_Lcd_Cmd
  7179                           
  7180                           ;LCD_LAB2.c: 53:     Lcd_Cmd(0x38);
  7181  096E  3038               	movlw	56
  7182  096F  160A  118A  2726  120A  158A  	fcall	_Lcd_Cmd
  7183                           
  7184                           ;LCD_LAB2.c: 54:     Lcd_Cmd(0x0C);
  7185  0974  300C               	movlw	12
  7186  0975  160A  118A  2726  120A  158A  	fcall	_Lcd_Cmd
  7187                           
  7188                           ;LCD_LAB2.c: 55:     Lcd_Cmd(0x01);
  7189  097A  3001               	movlw	1
  7190  097B  160A  118A  2726  120A  158A  	fcall	_Lcd_Cmd
  7191                           
  7192                           ;LCD_LAB2.c: 56:     Lcd_Cmd(0x06);
  7193  0980  3006               	movlw	6
  7194  0981  160A  118A  2726  120A  158A  	fcall	_Lcd_Cmd
  7195  0986                     l172:
  7196  0986  0008               	return
  7197  0987                     __end_of_Lcd_Init:
  7198                           
  7199                           	psect	text22
  7200  16E5                     __ptext22:	
  7201 ;; *************** function _Lcd_Clear *****************
  7202 ;; Defined at:
  7203 ;;		line 28 in file "LCD_LAB2.c"
  7204 ;; Parameters:    Size  Location     Type
  7205 ;;		None
  7206 ;; Auto vars:     Size  Location     Type
  7207 ;;		None
  7208 ;; Return value:  Size  Location     Type
  7209 ;;                  1    wreg      void 
  7210 ;; Registers used:
  7211 ;;		wreg, status,2, status,0, pclath, cstack
  7212 ;; Tracked objects:
  7213 ;;		On entry : 0/0
  7214 ;;		On exit  : 0/0
  7215 ;;		Unchanged: 0/0
  7216 ;; Data sizes:     COMMON   BANK0   BANK1   BANK3   BANK2
  7217 ;;      Params:         0       0       0       0       0
  7218 ;;      Locals:         0       0       0       0       0
  7219 ;;      Temps:          0       0       0       0       0
  7220 ;;      Totals:         0       0       0       0       0
  7221 ;;Total ram usage:        0 bytes
  7222 ;; Hardware stack levels used: 1
  7223 ;; Hardware stack levels required when called: 4
  7224 ;; This function calls:
  7225 ;;		_Lcd_Cmd
  7226 ;; This function is called by:
  7227 ;;		_main
  7228 ;; This function uses a non-reentrant model
  7229 ;;
  7230                           
  7231  16E5                     _Lcd_Clear:	
  7232                           ;psect for function _Lcd_Clear
  7233                           
  7234  16E5                     l3070:	
  7235                           ;incstack = 0
  7236                           ; Regs used in _Lcd_Clear: [wreg+status,2+status,0+pclath+cstack]
  7237                           
  7238                           
  7239                           ;LCD_LAB2.c: 29:     Lcd_Cmd(0x01);
  7240  16E5  3001               	movlw	1
  7241  16E6  160A  118A  2726  160A  118A  	fcall	_Lcd_Cmd
  7242  16EB                     l163:
  7243  16EB  0008               	return
  7244  16EC                     __end_of_Lcd_Clear:
  7245                           
  7246                           	psect	text23
  7247  1726                     __ptext23:	
  7248 ;; *************** function _Lcd_Cmd *****************
  7249 ;; Defined at:
  7250 ;;		line 19 in file "LCD_LAB2.c"
  7251 ;; Parameters:    Size  Location     Type
  7252 ;;  a               1    wreg     unsigned char 
  7253 ;; Auto vars:     Size  Location     Type
  7254 ;;  a               1    3[BANK0 ] unsigned char 
  7255 ;; Return value:  Size  Location     Type
  7256 ;;                  1    wreg      void 
  7257 ;; Registers used:
  7258 ;;		wreg, status,2, status,0, pclath, cstack
  7259 ;; Tracked objects:
  7260 ;;		On entry : 0/0
  7261 ;;		On exit  : 0/0
  7262 ;;		Unchanged: 0/0
  7263 ;; Data sizes:     COMMON   BANK0   BANK1   BANK3   BANK2
  7264 ;;      Params:         0       0       0       0       0
  7265 ;;      Locals:         0       1       0       0       0
  7266 ;;      Temps:          0       2       0       0       0
  7267 ;;      Totals:         0       3       0       0       0
  7268 ;;Total ram usage:        3 bytes
  7269 ;; Hardware stack levels used: 1
  7270 ;; Hardware stack levels required when called: 3
  7271 ;; This function calls:
  7272 ;;		_Lcd_Port
  7273 ;; This function is called by:
  7274 ;;		_Lcd_Clear
  7275 ;;		_Lcd_Set_Cursor
  7276 ;;		_Lcd_Init
  7277 ;;		_Lcd_Shift_Right
  7278 ;;		_Lcd_Shift_Left
  7279 ;; This function uses a non-reentrant model
  7280 ;;
  7281                           
  7282  1726                     _Lcd_Cmd:	
  7283                           ;psect for function _Lcd_Cmd
  7284                           
  7285                           
  7286                           ;incstack = 0
  7287                           ; Regs used in _Lcd_Cmd: [wreg+status,2+status,0+pclath+cstack]
  7288                           ;Lcd_Cmd@a stored from wreg
  7289  1726  1283               	bcf	3,5	;RP0=0, select bank0
  7290  1727  1303               	bcf	3,6	;RP1=0, select bank0
  7291  1728  00A3               	movwf	Lcd_Cmd@a
  7292  1729                     l3018:
  7293                           
  7294                           ;LCD_LAB2.c: 19: void Lcd_Cmd(char a);LCD_LAB2.c: 20: {;LCD_LAB2.c: 21:     PORTCbits.RC
      +                          6 = 0;
  7295  1729  1307               	bcf	7,6	;volatile
  7296  172A                     l3020:
  7297                           
  7298                           ;LCD_LAB2.c: 22:     Lcd_Port(a);
  7299  172A  0823               	movf	Lcd_Cmd@a,w
  7300  172B  160A  118A  26D9  160A  118A  	fcall	_Lcd_Port
  7301  1730                     l3022:
  7302                           
  7303                           ;LCD_LAB2.c: 23:     RC7 = 1;
  7304  1730  1283               	bcf	3,5	;RP0=0, select bank0
  7305  1731  1303               	bcf	3,6	;RP1=0, select bank0
  7306  1732  1787               	bsf	7,7	;volatile
  7307  1733                     l3024:
  7308                           
  7309                           ;LCD_LAB2.c: 24:     _delay((unsigned long)((4)*(8000000/4000.0)));
  7310  1733  300B               	movlw	11
  7311  1734  1283               	bcf	3,5	;RP0=0, select bank0
  7312  1735  1303               	bcf	3,6	;RP1=0, select bank0
  7313  1736  00A2               	movwf	??_Lcd_Cmd+1
  7314  1737  3061               	movlw	97
  7315  1738  00A1               	movwf	??_Lcd_Cmd
  7316  1739                     u3747:
  7317  1739  0BA1               	decfsz	??_Lcd_Cmd,f
  7318  173A  2F39               	goto	u3747
  7319  173B  0BA2               	decfsz	??_Lcd_Cmd+1,f
  7320  173C  2F39               	goto	u3747
  7321  173D  2F3E               	nop2
  7322  173E                     l3026:
  7323                           
  7324                           ;LCD_LAB2.c: 25:     RC7 = 0;
  7325  173E  1283               	bcf	3,5	;RP0=0, select bank0
  7326  173F  1303               	bcf	3,6	;RP1=0, select bank0
  7327  1740  1387               	bcf	7,7	;volatile
  7328  1741                     l160:
  7329  1741  0008               	return
  7330  1742                     __end_of_Lcd_Cmd:
  7331                           
  7332                           	psect	text24
  7333  16D9                     __ptext24:	
  7334 ;; *************** function _Lcd_Port *****************
  7335 ;; Defined at:
  7336 ;;		line 14 in file "LCD_LAB2.c"
  7337 ;; Parameters:    Size  Location     Type
  7338 ;;  a               1    wreg     unsigned char 
  7339 ;; Auto vars:     Size  Location     Type
  7340 ;;  a               1    0[BANK0 ] unsigned char 
  7341 ;; Return value:  Size  Location     Type
  7342 ;;                  1    wreg      void 
  7343 ;; Registers used:
  7344 ;;		wreg
  7345 ;; Tracked objects:
  7346 ;;		On entry : 0/0
  7347 ;;		On exit  : 0/0
  7348 ;;		Unchanged: 0/0
  7349 ;; Data sizes:     COMMON   BANK0   BANK1   BANK3   BANK2
  7350 ;;      Params:         0       0       0       0       0
  7351 ;;      Locals:         0       1       0       0       0
  7352 ;;      Temps:          0       0       0       0       0
  7353 ;;      Totals:         0       1       0       0       0
  7354 ;;Total ram usage:        1 bytes
  7355 ;; Hardware stack levels used: 1
  7356 ;; Hardware stack levels required when called: 2
  7357 ;; This function calls:
  7358 ;;		Nothing
  7359 ;; This function is called by:
  7360 ;;		_Lcd_Cmd
  7361 ;;		_Lcd_Init
  7362 ;;		_Lcd_Write_Char
  7363 ;; This function uses a non-reentrant model
  7364 ;;
  7365                           
  7366  16D9                     _Lcd_Port:	
  7367                           ;psect for function _Lcd_Port
  7368                           
  7369                           
  7370                           ;incstack = 0
  7371                           ; Regs used in _Lcd_Port: [wreg]
  7372                           ;Lcd_Port@a stored from wreg
  7373  16D9  1283               	bcf	3,5	;RP0=0, select bank0
  7374  16DA  1303               	bcf	3,6	;RP1=0, select bank0
  7375  16DB  00A0               	movwf	Lcd_Port@a
  7376  16DC                     l2978:
  7377                           
  7378                           ;LCD_LAB2.c: 14: void Lcd_Port(char a);LCD_LAB2.c: 15: {;LCD_LAB2.c: 16:     PORTD = a;
  7379  16DC  0820               	movf	Lcd_Port@a,w
  7380  16DD  0088               	movwf	8	;volatile
  7381  16DE                     l157:
  7382  16DE  0008               	return
  7383  16DF                     __end_of_Lcd_Port:
  7384                           
  7385                           	psect	text25
  7386  09D3                     __ptext25:	
  7387 ;; *************** function _isr *****************
  7388 ;; Defined at:
  7389 ;;		line 64 in file "main2.c"
  7390 ;; Parameters:    Size  Location     Type
  7391 ;;		None
  7392 ;; Auto vars:     Size  Location     Type
  7393 ;;		None
  7394 ;; Return value:  Size  Location     Type
  7395 ;;                  1    wreg      void 
  7396 ;; Registers used:
  7397 ;;		wreg, status,2, status,0, pclath, cstack
  7398 ;; Tracked objects:
  7399 ;;		On entry : 0/0
  7400 ;;		On exit  : 0/0
  7401 ;;		Unchanged: 0/0
  7402 ;; Data sizes:     COMMON   BANK0   BANK1   BANK3   BANK2
  7403 ;;      Params:         0       0       0       0       0
  7404 ;;      Locals:         0       0       0       0       0
  7405 ;;      Temps:          3       0       0       0       0
  7406 ;;      Totals:         3       0       0       0       0
  7407 ;;Total ram usage:        3 bytes
  7408 ;; Hardware stack levels used: 1
  7409 ;; Hardware stack levels required when called: 1
  7410 ;; This function calls:
  7411 ;;		_adc_read
  7412 ;;		i1_tmr0_reload
  7413 ;; This function is called by:
  7414 ;;		Interrupt level 1
  7415 ;; This function uses a non-reentrant model
  7416 ;;
  7417                           
  7418  09D3                     _isr:	
  7419                           ;psect for function _isr
  7420                           
  7421  09D3                     i1l2782:
  7422                           
  7423                           ;main2.c: 65:     if(INTCONbits.T0IF){
  7424  09D3  1D0B               	btfss	11,2	;volatile
  7425  09D4  29D6               	goto	u348_21
  7426  09D5  29D7               	goto	u348_20
  7427  09D6                     u348_21:
  7428  09D6  29F5               	goto	i1l2798
  7429  09D7                     u348_20:
  7430  09D7                     i1l2784:
  7431                           
  7432                           ;main2.c: 66:         contador++;
  7433  09D7  3001               	movlw	1
  7434  09D8  00F4               	movwf	??_isr
  7435  09D9  0874               	movf	??_isr,w
  7436  09DA  07FA               	addwf	_contador,f
  7437                           
  7438                           ;main2.c: 67:         if(contador == 100){
  7439  09DB  3064               	movlw	100
  7440  09DC  067A               	xorwf	_contador,w
  7441  09DD  1D03               	btfss	3,2
  7442  09DE  29E0               	goto	u349_21
  7443  09DF  29E1               	goto	u349_20
  7444  09E0                     u349_21:
  7445  09E0  29F0               	goto	i1l2796
  7446  09E1                     u349_20:
  7447  09E1                     i1l2786:
  7448                           
  7449                           ;main2.c: 68:             if(bandera == 1){
  7450  09E1  0378               	decf	_bandera,w
  7451  09E2  1D03               	btfss	3,2
  7452  09E3  29E5               	goto	u350_21
  7453  09E4  29E6               	goto	u350_20
  7454  09E5                     u350_21:
  7455  09E5  29E8               	goto	i1l2790
  7456  09E6                     u350_20:
  7457  09E6                     i1l2788:
  7458                           
  7459                           ;main2.c: 69:                 bandera = 0;
  7460  09E6  01F8               	clrf	_bandera
  7461                           
  7462                           ;main2.c: 70:             }
  7463  09E7  29EF               	goto	i1l2794
  7464  09E8                     i1l2790:
  7465  09E8  0878               	movf	_bandera,w
  7466  09E9  1D03               	btfss	3,2
  7467  09EA  29EC               	goto	u351_21
  7468  09EB  29ED               	goto	u351_20
  7469  09EC                     u351_21:
  7470  09EC  29EF               	goto	i1l2794
  7471  09ED                     u351_20:
  7472  09ED                     i1l2792:
  7473                           
  7474                           ;main2.c: 72:                 bandera = 1;
  7475  09ED  01F8               	clrf	_bandera
  7476  09EE  0AF8               	incf	_bandera,f
  7477  09EF                     i1l2794:
  7478                           
  7479                           ;main2.c: 74:             contador = 0;
  7480  09EF  01FA               	clrf	_contador
  7481  09F0                     i1l2796:
  7482                           
  7483                           ;main2.c: 76:         tmr0_reload();
  7484  09F0  160A  118A  26D3  120A  158A  	fcall	i1_tmr0_reload
  7485  09F5                     i1l2798:
  7486                           
  7487                           ;main2.c: 78:     if(PIR1bits.ADIF){
  7488  09F5  1283               	bcf	3,5	;RP0=0, select bank0
  7489  09F6  1303               	bcf	3,6	;RP1=0, select bank0
  7490  09F7  1F0C               	btfss	12,6	;volatile
  7491  09F8  29FA               	goto	u352_21
  7492  09F9  29FB               	goto	u352_20
  7493  09FA                     u352_21:
  7494  09FA  2A1D               	goto	i1l82
  7495  09FB                     u352_20:
  7496  09FB                     i1l2800:
  7497                           
  7498                           ;main2.c: 79:         if(canal_ADC == 0){
  7499  09FB  0879               	movf	_canal_ADC,w
  7500  09FC  1D03               	btfss	3,2
  7501  09FD  29FF               	goto	u353_21
  7502  09FE  2A00               	goto	u353_20
  7503  09FF                     u353_21:
  7504  09FF  2A0C               	goto	i1l2804
  7505  0A00                     u353_20:
  7506  0A00                     i1l2802:
  7507                           
  7508                           ;main2.c: 80:             VAL_POT_0 = adc_read();
  7509  0A00  160A  118A  26EC  120A  158A  	fcall	_adc_read
  7510  0A05  0870               	movf	?_adc_read,w
  7511  0A06  00F4               	movwf	??_isr
  7512  0A07  0874               	movf	??_isr,w
  7513  0A08  1683               	bsf	3,5	;RP0=1, select bank1
  7514  0A09  1303               	bcf	3,6	;RP1=0, select bank1
  7515  0A0A  00C6               	movwf	_VAL_POT_0^(0+128)
  7516                           
  7517                           ;main2.c: 81:         }
  7518  0A0B  2A1D               	goto	i1l82
  7519  0A0C                     i1l2804:
  7520  0A0C  0379               	decf	_canal_ADC,w
  7521  0A0D  1D03               	btfss	3,2
  7522  0A0E  2A10               	goto	u354_21
  7523  0A0F  2A11               	goto	u354_20
  7524  0A10                     u354_21:
  7525  0A10  2A1D               	goto	i1l78
  7526  0A11                     u354_20:
  7527  0A11                     i1l2806:
  7528                           
  7529                           ;main2.c: 83:             VAL_POT_1 = adc_read();
  7530  0A11  160A  118A  26EC  120A  158A  	fcall	_adc_read
  7531  0A16  0870               	movf	?_adc_read,w
  7532  0A17  00F4               	movwf	??_isr
  7533  0A18  0874               	movf	??_isr,w
  7534  0A19  1683               	bsf	3,5	;RP0=1, select bank1
  7535  0A1A  1303               	bcf	3,6	;RP1=0, select bank1
  7536  0A1B  00C5               	movwf	_VAL_POT_1^(0+128)
  7537  0A1C  2A1D               	goto	i1l82
  7538  0A1D                     i1l78:	
  7539                           ;main2.c: 85:     }
  7540                           
  7541  0A1D                     i1l82:
  7542  0A1D  0876               	movf	??_isr+2,w
  7543  0A1E  008A               	movwf	10
  7544  0A1F  0E75               	swapf	??_isr+1,w
  7545  0A20  0083               	movwf	3
  7546  0A21  0EFE               	swapf	btemp,f
  7547  0A22  0E7E               	swapf	btemp,w
  7548  0A23  0009               	retfie
  7549  0A24                     __end_of_isr:
  7550                           
  7551                           	psect	intentry
  7552  0004                     __pintentry:	
  7553                           ;incstack = 0
  7554                           ; Regs used in _isr: [wreg+status,2+status,0+pclath+cstack]
  7555                           
  7556  0004                     interrupt_function:
  7557  007E                     saved_w	set	btemp
  7558  0004  00FE               	movwf	btemp
  7559  0005  0E03               	swapf	3,w
  7560  0006  00F5               	movwf	??_isr+1
  7561  0007  080A               	movf	10,w
  7562  0008  00F6               	movwf	??_isr+2
  7563  0009  120A  158A  29D3   	ljmp	_isr
  7564                           
  7565                           	psect	text26
  7566  16D3                     __ptext26:	
  7567 ;; *************** function i1_tmr0_reload *****************
  7568 ;; Defined at:
  7569 ;;		line 40 in file "tmr0_2.c"
  7570 ;; Parameters:    Size  Location     Type
  7571 ;;		None
  7572 ;; Auto vars:     Size  Location     Type
  7573 ;;		None
  7574 ;; Return value:  Size  Location     Type
  7575 ;;                  1    wreg      void 
  7576 ;; Registers used:
  7577 ;;		wreg
  7578 ;; Tracked objects:
  7579 ;;		On entry : 0/0
  7580 ;;		On exit  : 0/0
  7581 ;;		Unchanged: 0/0
  7582 ;; Data sizes:     COMMON   BANK0   BANK1   BANK3   BANK2
  7583 ;;      Params:         0       0       0       0       0
  7584 ;;      Locals:         0       0       0       0       0
  7585 ;;      Temps:          0       0       0       0       0
  7586 ;;      Totals:         0       0       0       0       0
  7587 ;;Total ram usage:        0 bytes
  7588 ;; Hardware stack levels used: 1
  7589 ;; This function calls:
  7590 ;;		Nothing
  7591 ;; This function is called by:
  7592 ;;		_isr
  7593 ;; This function uses a non-reentrant model
  7594 ;;
  7595                           
  7596  16D3                     i1_tmr0_reload:	
  7597                           ;psect for function i1_tmr0_reload
  7598                           
  7599  16D3                     i1l2778:	
  7600                           ;incstack = 0
  7601                           ; Regs used in i1_tmr0_reload: [wreg]
  7602                           
  7603                           
  7604                           ;tmr0_2.c: 41:     TMR0 = 61;
  7605  16D3  303D               	movlw	61
  7606  16D4  1283               	bcf	3,5	;RP0=0, select bank0
  7607  16D5  1303               	bcf	3,6	;RP1=0, select bank0
  7608  16D6  0081               	movwf	1	;volatile
  7609  16D7                     i1l2780:
  7610                           
  7611                           ;tmr0_2.c: 42:     INTCONbits.T0IF = 0;
  7612  16D7  110B               	bcf	11,2	;volatile
  7613  16D8                     i1l210:
  7614  16D8  0008               	return
  7615  16D9                     __end_ofi1_tmr0_reload:
  7616                           
  7617                           	psect	text27
  7618  16EC                     __ptext27:	
  7619 ;; *************** function _adc_read *****************
  7620 ;; Defined at:
  7621 ;;		line 51 in file "adc2.c"
  7622 ;; Parameters:    Size  Location     Type
  7623 ;;		None
  7624 ;; Auto vars:     Size  Location     Type
  7625 ;;		None
  7626 ;; Return value:  Size  Location     Type
  7627 ;;                  2    0[COMMON] int 
  7628 ;; Registers used:
  7629 ;;		wreg
  7630 ;; Tracked objects:
  7631 ;;		On entry : 0/0
  7632 ;;		On exit  : 0/0
  7633 ;;		Unchanged: 0/0
  7634 ;; Data sizes:     COMMON   BANK0   BANK1   BANK3   BANK2
  7635 ;;      Params:         2       0       0       0       0
  7636 ;;      Locals:         0       0       0       0       0
  7637 ;;      Temps:          2       0       0       0       0
  7638 ;;      Totals:         4       0       0       0       0
  7639 ;;Total ram usage:        4 bytes
  7640 ;; Hardware stack levels used: 1
  7641 ;; This function calls:
  7642 ;;		Nothing
  7643 ;; This function is called by:
  7644 ;;		_isr
  7645 ;; This function uses a non-reentrant model
  7646 ;;
  7647                           
  7648  16EC                     _adc_read:	
  7649                           ;psect for function _adc_read
  7650                           
  7651  16EC                     i1l2628:	
  7652                           ;incstack = 0
  7653                           ; Regs used in _adc_read: [wreg]
  7654                           
  7655                           
  7656                           ;adc2.c: 52:     PIR1bits.ADIF = 0;
  7657  16EC  1283               	bcf	3,5	;RP0=0, select bank0
  7658  16ED  1303               	bcf	3,6	;RP1=0, select bank0
  7659  16EE  130C               	bcf	12,6	;volatile
  7660  16EF                     i1l2630:
  7661                           
  7662                           ;adc2.c: 53:     return (ADRESH);
  7663  16EF  081E               	movf	30,w	;volatile
  7664  16F0  00F2               	movwf	??_adc_read
  7665  16F1  01F3               	clrf	??_adc_read+1
  7666  16F2  0872               	movf	??_adc_read,w
  7667  16F3  00F0               	movwf	?_adc_read
  7668  16F4  0873               	movf	??_adc_read+1,w
  7669  16F5  00F1               	movwf	?_adc_read+1
  7670  16F6                     i1l146:
  7671  16F6  0008               	return
  7672  16F7                     __end_of_adc_read:
  7673  007E                     btemp	set	126	;btemp
  7674  007E                     wtemp0	set	126
  7675                           
  7676                           	psect	idloc
  7677                           
  7678                           ;Config register IDLOC0 @ 0x2000
  7679                           ;	unspecified, using default values
  7680  2000                     	org	8192
  7681  2000  3FFF               	dw	16383
  7682                           
  7683                           ;Config register IDLOC1 @ 0x2001
  7684                           ;	unspecified, using default values
  7685  2001                     	org	8193
  7686  2001  3FFF               	dw	16383
  7687                           
  7688                           ;Config register IDLOC2 @ 0x2002
  7689                           ;	unspecified, using default values
  7690  2002                     	org	8194
  7691  2002  3FFF               	dw	16383
  7692                           
  7693                           ;Config register IDLOC3 @ 0x2003
  7694                           ;	unspecified, using default values
  7695  2003                     	org	8195
  7696  2003  3FFF               	dw	16383
  7697                           
  7698                           	psect	config
  7699                           
  7700                           ;Config register CONFIG1 @ 0x2007
  7701                           ;	Oscillator Selection bits
  7702                           ;	FOSC = INTRC_NOCLKOUT, INTOSCIO oscillator: I/O function on RA6/OSC2/CLKOUT pin, I/O f
      +                          unction on RA7/OSC1/CLKIN
  7703                           ;	Watchdog Timer Enable bit
  7704                           ;	WDTE = OFF, WDT disabled and can be enabled by SWDTEN bit of the WDTCON register
  7705                           ;	Power-up Timer Enable bit
  7706                           ;	PWRTE = OFF, PWRT disabled
  7707                           ;	RE3/MCLR pin function select bit
  7708                           ;	MCLRE = OFF, RE3/MCLR pin function is digital input, MCLR internally tied to VDD
  7709                           ;	Code Protection bit
  7710                           ;	CP = OFF, Program memory code protection is disabled
  7711                           ;	Data Code Protection bit
  7712                           ;	CPD = OFF, Data memory code protection is disabled
  7713                           ;	Brown Out Reset Selection bits
  7714                           ;	BOREN = OFF, BOR disabled
  7715                           ;	Internal External Switchover bit
  7716                           ;	IESO = OFF, Internal/External Switchover mode is disabled
  7717                           ;	Fail-Safe Clock Monitor Enabled bit
  7718                           ;	FCMEN = OFF, Fail-Safe Clock Monitor is disabled
  7719                           ;	Low Voltage Programming Enable bit
  7720                           ;	LVP = OFF, RB3 pin has digital I/O, HV on MCLR must be used for programming
  7721                           ;	In-Circuit Debugger Mode bit
  7722                           ;	DEBUG = 0x1, unprogrammed default
  7723  2007                     	org	8199
  7724  2007  20D4               	dw	8404
  7725                           
  7726                           ;Config register CONFIG2 @ 0x2008
  7727                           ;	Brown-out Reset Selection bit
  7728                           ;	BOR4V = BOR40V, Brown-out Reset set to 4.0V
  7729                           ;	Flash Program Memory Self Write Enable bits
  7730                           ;	WRT = OFF, Write protection off
  7731  2008                     	org	8200
  7732  2008  3FFF               	dw	16383

Data Sizes:
    Strings     73
    Constant    10
    Data        0
    BSS         15
    Persistent  0
    Stack       0

Auto Spaces:
    Space          Size  Autos    Used
    COMMON           14      7      11
    BANK0            80     80      80
    BANK1            80     29      40
    BANK3            96      0       0
    BANK2            96      0       0

Pointer List with Targets:

    sprintf@f	PTR const unsigned char  size(1) Largest target is 19
		 -> STR_4(CODE[19]), STR_2(CODE[18]), 

    sprintf@sp	PTR unsigned char  size(1) Largest target is 1
		 -> s(BANK1[1]), 

    sprintf@ap	PTR void [1] size(1) Largest target is 2
		 -> ?_sprintf(BANK0[2]), 

    Lcd_Write_String@a	PTR unsigned char  size(2) Largest target is 19
		 -> STR_3(CODE[17]), s(BANK1[1]), STR_1(CODE[19]), 


Critical Paths under _main in COMMON

    None.

Critical Paths under _isr in COMMON

    _isr->_adc_read

Critical Paths under _main in BANK0

    _sprintf->___lwmod
    ___lwmod->___lwdiv
    _setup->_adc_init
    _map->___fltol
    ___fltol->___fladd
    ___flmul->___fldiv
    ___fldiv->___xxtofl
    ___fladd->___flmul
    _Lcd_Write_String->_Lcd_Write_Char
    _Lcd_Write_Char->_Lcd_Port
    _Lcd_Set_Cursor->_Lcd_Cmd
    _Lcd_Init->_Lcd_Cmd
    _Lcd_Clear->_Lcd_Cmd
    _Lcd_Cmd->_Lcd_Port

Critical Paths under _isr in BANK0

    None.

Critical Paths under _main in BANK1

    _main->_map
    _map->___fltol
    ___fltol->___fladd

Critical Paths under _isr in BANK1

    None.

Critical Paths under _main in BANK3

    None.

Critical Paths under _isr in BANK3

    None.

Critical Paths under _main in BANK2

    None.

Critical Paths under _isr in BANK2

    None.

Call Graph Tables:

 ---------------------------------------------------------------------------------
 (Depth) Function   	        Calls       Base Space   Used Autos Params    Refs
 ---------------------------------------------------------------------------------
 (0) _main                                                 7     7      0   12212
                                             24 BANK1      5     5      0
                          _Lcd_Clear
                           _Lcd_Init
                     _Lcd_Set_Cursor
                   _Lcd_Write_String
                             ___bmul
                            ___lwdiv
                          _adc_start
                                _map
                              _setup
                            _sprintf
 ---------------------------------------------------------------------------------
 (1) _sprintf                                             23    18      5    1624
                                             14 BANK0     15    10      5
                            ___lwdiv
                            ___lwmod
 ---------------------------------------------------------------------------------
 (2) ___lwmod                                              6     2      4     311
                                              8 BANK0      6     2      4
                            ___lwdiv (ARG)
 ---------------------------------------------------------------------------------
 (2) ___lwdiv                                              8     4      4     618
                                              0 BANK0      8     4      4
 ---------------------------------------------------------------------------------
 (1) _setup                                                0     0      0     361
                           _adc_init
                       _init_osc_MHz
                          _tmr0_init
                        _tmr0_reload
 ---------------------------------------------------------------------------------
 (2) _tmr0_reload                                          0     0      0       0
 ---------------------------------------------------------------------------------
 (2) _tmr0_init                                            2     0      2     121
                                              0 BANK0      2     0      2
 ---------------------------------------------------------------------------------
 (2) _init_osc_MHz                                         3     3      0      22
                                              0 BANK0      3     3      0
 ---------------------------------------------------------------------------------
 (2) _adc_init                                             5     3      2     218
                                              0 BANK0      5     3      2
 ---------------------------------------------------------------------------------
 (1) _map                                                  7     1      6    7820
                                             17 BANK1      7     1      6
                            ___fladd
                            ___fldiv
                            ___flmul
                            ___fltol
                           ___xxtofl
 ---------------------------------------------------------------------------------
 (2) ___xxtofl                                            14    10      4     626
                                              0 BANK0     14    10      4
 ---------------------------------------------------------------------------------
 (2) ___fltol                                             11     7      4     305
                                             78 BANK0      2     2      0
                                              8 BANK1      9     5      4
                            ___fladd (ARG)
                            ___fldiv (ARG)
                            ___flmul (ARG)
                           ___xxtofl (ARG)
 ---------------------------------------------------------------------------------
 (2) ___flmul                                             26    18      8    2417
                                             40 BANK0     26    18      8
                          __Umul8_16
                            ___fldiv (ARG)
                           ___xxtofl (ARG)
 ---------------------------------------------------------------------------------
 (3) __Umul8_16                                            9     7      2     799
                                              0 BANK0      9     7      2
 ---------------------------------------------------------------------------------
 (2) ___fldiv                                             26    18      8    1273
                                             14 BANK0     26    18      8
                           ___xxtofl (ARG)
 ---------------------------------------------------------------------------------
 (2) ___fladd                                             20    12      8    2262
                                             66 BANK0     12     4      8
                                              0 BANK1      8     8      0
                            ___fldiv (ARG)
                            ___flmul (ARG)
                           ___xxtofl (ARG)
 ---------------------------------------------------------------------------------
 (1) _adc_start                                            2     2      0      44
                                              0 BANK0      2     2      0
 ---------------------------------------------------------------------------------
 (1) ___bmul                                               4     3      1     244
                                              0 BANK0      4     3      1
 ---------------------------------------------------------------------------------
 (1) _Lcd_Write_String                                     7     5      2     552
                                              3 BANK0      7     5      2
                     _Lcd_Write_Char
 ---------------------------------------------------------------------------------
 (2) _Lcd_Write_Char                                       2     2      0      62
                                              1 BANK0      2     2      0
                           _Lcd_Port
 ---------------------------------------------------------------------------------
 (1) _Lcd_Set_Cursor                                       4     3      1     794
                                              4 BANK0      4     3      1
                            _Lcd_Cmd
 ---------------------------------------------------------------------------------
 (1) _Lcd_Init                                             2     2      0      93
                                              4 BANK0      2     2      0
                            _Lcd_Cmd
                           _Lcd_Port
 ---------------------------------------------------------------------------------
 (1) _Lcd_Clear                                            0     0      0      62
                            _Lcd_Cmd
 ---------------------------------------------------------------------------------
 (2) _Lcd_Cmd                                              3     3      0      62
                                              1 BANK0      3     3      0
                           _Lcd_Port
 ---------------------------------------------------------------------------------
 (3) _Lcd_Port                                             1     1      0      31
                                              0 BANK0      1     1      0
 ---------------------------------------------------------------------------------
 Estimated maximum stack depth 3
 ---------------------------------------------------------------------------------
 (Depth) Function   	        Calls       Base Space   Used Autos Params    Refs
 ---------------------------------------------------------------------------------
 (4) _isr                                                  3     3      0       0
                                              4 COMMON     3     3      0
                           _adc_read
                      i1_tmr0_reload
 ---------------------------------------------------------------------------------
 (5) i1_tmr0_reload                                        0     0      0       0
 ---------------------------------------------------------------------------------
 (5) _adc_read                                             4     2      2       0
                                              0 COMMON     4     2      2
 ---------------------------------------------------------------------------------
 Estimated maximum stack depth 5
 ---------------------------------------------------------------------------------

 Call Graph Graphs:

 _main (ROOT)
   _Lcd_Clear
     _Lcd_Cmd
       _Lcd_Port
   _Lcd_Init
     _Lcd_Cmd
     _Lcd_Port
   _Lcd_Set_Cursor
     _Lcd_Cmd
   _Lcd_Write_String
     _Lcd_Write_Char
       _Lcd_Port
   ___bmul
   ___lwdiv
   _adc_start
   _map
     ___fladd
       ___fldiv (ARG)
         ___xxtofl (ARG)
       ___flmul (ARG)
         __Umul8_16
         ___fldiv (ARG)
         ___xxtofl (ARG)
       ___xxtofl (ARG)
     ___fldiv
     ___flmul
     ___fltol
       ___fladd (ARG)
       ___fldiv (ARG)
       ___flmul (ARG)
       ___xxtofl (ARG)
     ___xxtofl
   _setup
     _adc_init
     _init_osc_MHz
     _tmr0_init
     _tmr0_reload
   _sprintf
     ___lwdiv
     ___lwmod
       ___lwdiv (ARG)

 _isr (ROOT)
   _adc_read
   i1_tmr0_reload

 Address spaces:
Name               Size   Autos  Total    Cost      Usage
BITCOMMON            E      0       0       0        0.0%
EEDATA             100      0       0       0        0.0%
NULL                 0      0       0       0        0.0%
CODE                 0      0       0       0        0.0%
COMMON               E      7       B       1       78.6%
BITSFR0              0      0       0       1        0.0%
SFR0                 0      0       0       1        0.0%
BITSFR1              0      0       0       2        0.0%
SFR1                 0      0       0       2        0.0%
STACK                0      0       0       2        0.0%
ABS                  0      0      83       3        0.0%
BITBANK0            50      0       0       4        0.0%
BITSFR3              0      0       0       4        0.0%
SFR3                 0      0       0       4        0.0%
BANK0               50     50      50       5      100.0%
BITSFR2              0      0       0       5        0.0%
SFR2                 0      0       0       5        0.0%
BITBANK1            50      0       0       6        0.0%
BANK1               50     1D      28       7       50.0%
BITBANK3            60      0       0       8        0.0%
BANK3               60      0       0       9        0.0%
BITBANK2            60      0       0      10        0.0%
BANK2               60      0       0      11        0.0%
DATA                 0      0      83      12        0.0%


Microchip Technology PIC Macro Assembler V2.35 build 20211206165544 
Symbol Table                                                                                   Fri Aug 05 07:14:21 2022

            ___fldiv@aexp 0047              ___fldiv@bexp 0046                         _s 00C7  
                       pc 0002              ___fldiv@sign 003F            ___bmul@product 0022  
                      l99 17C3                        fsr 0004       __Umul8_16@word_mpld 0026  
                     l102 0C9B                       l210 16E4                       l115 093A  
                     l140 1761                       l143 1765                       l135 09D2  
                     l207 0A87                       l160 1741                       l320 07D4  
                     l163 16EB                       l172 0986                       l157 16DE  
                     l181 08A9                       l350 170D                       l510 0B19  
                     l175 1725                       l520 0B19                       l169 178B  
                     l621 0198                       l517 0B02                       l630 0389  
                     l606 17FF                       l623 0163                       l617 0097  
                     l713 06EA                       l642 02D3                       l651 0353  
                     l660 0389                       l732 07EB                       l725 06DE  
                     l638 02A7                       l734 07FD                       l719 0656  
                     l648 02F5                       l673 0E7F                       l770 0B9F  
                     l659 0379                       l675 0FFF                       l771 0BAB  
                     l763 0B83                       l596 08EF                       l757 0B3E  
                     l695 0FE3                       l759 0BD5                       l697 0FF3  
                     l689 0F71                       _RC7 003F                       _map 0BD6  
                     _isr 09D3                       fsr0 0004                       indf 0000  
            ___flmul@aexp 005A              ___flmul@bexp 005B              ___flmul@sign 0055  
            ___flmul@temp 0060              ___flmul@prod 005C              ___fltol@exp1 006F  
                    l2100 17EE                      l2110 002F                      l2030 0AA2  
                    l2102 17F5                      l2200 017B                      l2120 0048  
                    l2112 0039                      l2040 0ACE                      l2032 0ABB  
                    l2024 0A88                      l3000 0A58                      l2104 17FB  
                    l2202 018A                      l2130 0064                      l2122 0050  
                    l2114 003D                      l2034 0ABE                      l2026 0A97  
                    l3020 172A                      l2300 0388                      l2220 01D6  
                    l2212 01AA                      l2204 0190                      l2140 007A  
                    l2132 006A                      l2124 0051                      l2116 003E  
                    l2108 0024                      l2036 0AC6                      l3004 0A5D  
                    l2060 08AA                      l3100 0CA6                      l3022 1730  
                    l3030 1712                      l2222 01D8                      l2214 01C1  
                    l2206 019C                      l2230 01F3                      l2142 007F  
                    l2150 008F                      l2134 006B                      l2118 0043  
                    l2126 0053                      l2310 0E35                      l2302 0E23  
                    l2054 0AF3                      l2046 0AD6                      l2038 0ACA  
                    l3006 0A83                      l2070 08C2                      l2062 08AE  
                    l3110 0CD2                      l3102 0CAB                      l3024 1733  
                    l3032 1718                      l2232 0209                      l2240 0299  
                    l2224 01DC                      l2216 01C5                      l2208 01A1  
                    l2160 00B9                      l2152 009D                      l2144 0084  
                    l2136 0075                      l2128 005B                      l2400 0F51  
                    l2312 0E3A                      l2320 0E4A                      l2304 0E2A  
                    l2056 0B07                      l2048 0AEC                      l3008 0A86  
                    l3040 1799                      l2080 08E5                      l2072 08C6  
                    l2064 08B4                      l3120 0D12                      l3112 0CF1  
                    l3104 0CB0                      l3026 173E                      l3018 1729  
                    l3034 171B                      l2250 02CC                      l2242 02AF  
                    l2234 027B                      l2226 01DD                      l2218 01C9  
                    l2170 00E1                      l2162 00C1                      l2154 00A1  
                    l2146 008C                      l2138 0079                      l2402 0F55  
                    l2330 0E62                      l2322 0E52                      l2314 0E3F  
                    l2306 0E30                      l2058 0B0C                      l3050 17B0  
                    l3042 179F                      l2074 08D7                      l2066 08B7  
                    l2082 08EB                      l2090 17CF                      l3130 0D6E  
                    l3122 0D2C                      l3106 0CB6                      l3114 0D06  
                    l3060 093B                      l3036 1722                      l3028 1711  
                    l2260 02E1                      l2252 02D2                      l2244 02B4  
                    l2236 0285                      l2228 01EC                      l2180 0109  
                    l2172 00E9                      l2164 00C9                      l2156 00A9  
                    l2148 008D                      l2420 0FA6                      l2412 0F76  
                    l2404 0F56                      l2332 0E67                      l2340 0E77  
                    l2324 0E57                      l2316 0E47                      l2308 0E34  
                    l2500 0495                      l3052 17B1                      l3044 17A9  
                    l2076 08DD                      l2068 08BE                      l2092 17D6  
                    l3140 0DCA                      l3132 0D79                      l3124 0D4B  
                    l3116 0D0B                      l3108 0CB8                      l3070 16E5  
                    l3062 0941                      l2270 02F2                      l2254 02D7  
                    l2262 02E3                      l2238 028A                      l2190 013F  
                    l2182 0111                      l2174 00F1                      l2166 00D1  
                    l2158 00B1                      l2430 0FDA                      l2414 0F7B  
                    l2422 0FAC                      l2406 0F5A                      l2342 0E87  
                    l2350 0EA0                      l2334 0E6C                      l2326 0E5D  
                    l2318 0E48                      l2510 04F7                      l2502 04B1  
                    l3054 17B2                      l3046 17AC                      l3038 178C  
                    l2078 08DE                      l2094 17DA                      l2086 17C4  
                    l3142 0DD4                      l3134 0DAF                      l3118 0D11  
                    l3126 0D5F                      l3064 094B                      l3080 1773  
                    l2280 0311                      l2256 02DA                      l2248 02BD  
                    l2264 02E7                      l2192 0167                      l2184 0119  
                    l2176 00F9                      l2168 00D9                      l2432 0FE2  
                    l2424 0FB9                      l2416 0F89                      l2408 0F6E  
                    l2360 0EC8                      l2352 0EA5                      l2344 0E93  
                    l2336 0E74                      l2328 0E61                      l2520 0587  
                    l2512 0514                      l2504 04BA                      l2600 0B61  
                    l3072 0BD9                      l3056 17B3                      l3048 17AF  
                    l2096 17DE                      l2088 17CC                      l3144 0DDF  
                    l3136 0DB9                      l3128 0D64                      l3066 095B  
                    l3082 177A                      l3090 0869                      l2290 036A  
                    l2282 034B                      l2274 02FA                      l2266 02E8  
                    l2258 02DC                      l2194 0174                      l2178 0101  
                    l2186 0121                      l2434 0FE9                      l2426 0FC7  
                    l2418 0F8D                      l2370 0EF1                      l2362 0ED0  
                    l2346 0E97                      l2338 0E75                      l2530 0619  
                    l2522 05B4                      l2514 052D                      l2506 04CA  
                    l2450 039B                      l2610 0B95                      l2602 0B68  
                    l3058 17B8                      l2098 17E8                      l3146 0E15  
                    l3138 0DC5                      l3068 0961                      l3084 1780  
                    l3076 1769                      l3092 0885                      l2292 036B  
                    l2284 0358                      l2276 02FF                      l2268 02EC  
                    l2196 0176                      l2188 0122                      l2436 0FED  
                    l2428 0FD6                      l2380 0F12                      l2372 0EF5  
                    l2364 0ED8                      l2356 0EAE                      l1900 07D8  
                    l2532 0622                      l2540 0636                      l2524 05DA  
                    l2516 054A                      l2508 04E7                      l2460 03B0  
                    l2452 039C                      l2444 038A                      l2620 0BC8  
                    l2612 0B99                      l2604 0B6C                      l3086 1785  
                    l3078 176E                      l3094 088D                      l2294 036F  
                    l2286 035D                      l2278 030D                      l2198 017A  
                    l2438 0FEF                      l2390 0F34                      l2382 0F20  
                    l2374 0EF6                      l2366 0EDA                      l2358 0EC0  
                    l1910 07F9                      l1902 07DA                      l2542 063A  
                    l2534 0626                      l2526 0602                      l2518 0577  
                    l2470 03C8                      l2462 03B8                      l2454 03A1  
                    l2446 0391                      l2622 0BCC                      l2614 0BA3  
                    l2606 0B7A                      l3270 0929                      l2710 0705  
                    l2702 06EE                      l3088 0864                      l2296 0371  
                    l2288 0365                      l2392 0F3D                      l2368 0EDF  
                    l2376 0EFF                      l2384 0F24                      l1904 07E1  
                    l2560 068B                      l2552 065B                      l2544 063B  
                    l2536 0627                      l2528 060B                      l2480 03E4  
                    l2472 03CD                      l2464 03BD                      l2456 03A6  
                    l2448 0397                      l2624 0BCD                      l2616 0BAD  
                    l2608 0B8A                      l3272 09A3                      l1920 08F7  
                    l2720 072F                      l3264 0718                      l2704 06F3  
                    l3096 0C9C                      l2298 0384                      l2394 0F41  
                    l2386 0F2A                      l2378 0F11                      l1906 07E5  
                    l2570 06C2                      l2554 0660                      l2562 0691  
                    l2546 063F                      l2538 0630                      l2490 0407  
                    l2482 03E9                      l2474 03D2                      l2466 03C3  
                    l2458 03AE                      l2618 0BC3                      l1930 0918  
                    l1922 08FE                      l3266 0A67                      l2722 0733  
                    l2714 0706                      l2706 06F9                      l3098 0CA1  
                    l2396 0F42                      l2388 0F32                      l1908 07F4  
                    l2580 06E2                      l2572 06C4                      l2564 069E  
                    l2556 066E                      l2548 0653                      l2492 0414  
                    l2484 03EE                      l2476 03DA                      l2468 03C7  
                    l1940 098A                      l1924 0905                      l3268 0A7E  
                    l2740 076A                      l2732 073E                      l2724 0737  
                    l2716 0723                      l2708 0700                      l2670 174B  
                    l2398 0F4B                      l2574 06D2                      l2566 06A9  
                    l2558 0672                      l2494 0431                      l2478 03DC  
                    l2590 0B36                      l1942 098B                      l1926 090C  
                    l1934 091F                      l1918 08F3                      l2750 07B1  
                    l2742 0771                      l2726 073C                      l2718 072B  
                    l2672 1755                      l2576 06D6                      l2568 06B8  
                    l2496 044D                      l2488 03F7                      l2592 0B46  
                    l2584 0B1D                      l1960 09C8                      l1944 098E  
                    l1952 099B                      l1928 0911                      l2752 07B5  
                    l2744 0775                      l2736 075A                      l2770 1703  
                    l2674 1757                      l2578 06D7                      l2498 0479  
                    l2586 0B22                      l1962 09CB                      l1946 0993  
                    l1954 09B1                      l2746 077A                      l2738 0764  
                    l2754 07BE                      l2772 1705                      l2764 16FA  
                    l2676 175E                      l2668 1745                      l2596 0B4F  
                    l2588 0B26                      l1956 09C1                      l1948 0998  
                    l2748 07AA                      l2756 07D0                      l2774 170C  
                    l2766 16FB                      l2598 0B54                      l1958 09C5  
                    ?_map 00B1                      l2768 16FF                      l2980 16DF  
                    l2990 0A35                      l2982 16E3                      l2992 0A3C  
                    l2984 0A24                      l2978 16DC                      l2994 0A43  
                    l2986 0A29                      l2996 0A4A                      l2988 0A2E  
                    l2998 0A51                      ?_isr 0070                      STR_1 081A  
                    STR_2 0840                      STR_3 0852                      STR_4 082D  
                    u2000 17CC                      u2001 17CB                      u2100 0079  
                    u2020 17DE                      u2101 0078                      u2021 17DD  
                    u2110 007F                      u2030 17E8                      u2111 007E  
                    u2031 17E7                      u2015 17D0                      u2120 0084  
                    u3000 05C0                      u2121 0083                      u2210 0198  
                    u2130 009D                      u2050 17FB                      u2211 0197  
                    u2131 009C                      u3011 05CC                      u2051 17FA  
                    u2035 17E4                      u2220 019C                      u2140 00A1  
                    u2060 003D                      u3100 0653                      u3020 05E8  
                    u3012 05D3                      u2301 0238                      u2221 019B  
                    u2205 017F                      u2141 00A0                      u2061 003C  
                    u3101 0652                      u3013 05DA                      u3005 05BB  
                    u2045 17EF                      u2310 025A                      u2302 023B  
                    u2230 01A1                      u2150 013F                      u2070 0043  
                    u3110 065A                      u2311 025B                      u2303 0242  
                    u2231 01A0                      u2151 013E                      u2071 0042  
                    u3111 0659                      u3031 05F4                      u2400 02EC  
                    u2320 028A                      u2312 0260                      u2304 0245  
                    u2160 014A                      u2080 0048                      u3120 0660  
                    u3032 05FB                      u3200 0B46                      u2401 02EB  
                    u2321 0289                      u2313 0261                      u2305 024C  
                    u2241 01B3                      u2161 0148                      u2081 0047  
                    u3121 065F                      u3033 0602                      u3025 05E3  
                    u3201 0B45                      u2410 02F2                      u2330 02AF  
                    u2306 024F                      u2250 01C5                      u2242 01BA  
                    u2170 014B                      u2090 006A                      u3130 0672  
                    u2411 02F1                      u2331 02AE                      u2251 01C4  
                    u2243 01C1                      u2155 013B                      u2091 0069  
                    u3131 0671                      u2500 036F                      u2420 02F9  
                    u2340 02B4                      u2260 01C9                      u2180 0167  
                    u3140 0681                      u3060 0626                      u3300 0BC8  
                    u3220 0B67                      u2501 036E                      u2421 02F8  
                    u2341 02B3                      u2261 01C8                      u2181 0166  
                    u3061 0625                      u3045 0604                      u3301 0BC7  
                    u3221 0B66                      u2510 0388                      u2430 02FF  
                    u2270 01DC                      u2190 017A                      u3150 069E  
                    u3310 0BCC                      u2511 0387                      u2431 02FE  
                    u2271 01DB                      u2191 0179                      u3151 069D  
                    u3055 061B                      u3311 0BCB                      u3215 0B59  
                    u3320 174B                      u2440 0311                      u2360 02D2  
                    u2600 0EDF                      u2520 0E34                      u1800 07E5  
                    u3160 06B8                      u3080 063A                      u3240 0B89  
                    u3400 0733                      u3321 174A                      u2441 0310  
                    u2361 02D1                      u2601 0EDE                      u2521 0E33  
                    u1801 07E4                      u3161 06B7                      u3145 067C  
                    u3081 0639                      u3241 0B88                      u3401 0732  
                    u3330 1765                      u2450 032E                      u2370 02D7  
                    u2290 0209                      u2530 0E3A                      u3170 06D6  
                    u3090 063F                      u3410 0759                      u3331 1764  
                    u2371 02D6                      u2355 02C1                      u2291 0208  
                    u2531 0E39                      u3171 06D5                      u3155 069A  
                    u3091 063E                      u3075 0629                      u3235 0B7B  
                    u3411 0758                      u2460 034B                      u2380 02E1  
                    u2540 0E3F                      u1820 07F9                      u3260 0B99  
                    u3180 0B22                      u3420 0764                      u2461 034A  
                    u2381 02E0                      u2293 0205                      u2285 01E1  
                    u2541 0E3E                      u1821 07F8                      u3165 06B4  
                    u3261 0B98                      u3181 0B21                      u3421 0763  
                    u2470 0358                      u2390 02E7                      u2710 0F55  
                    u2630 0EF5                      u2550 0E61                      u1910 0B07  
                    u1830 0A97                      u3270 0B9F                      u3190 0B26  
                    u3430 076A                      u2471 0357                      u2455 0329  
                    u2391 02E6                      u2711 0F54                      u2631 0EF4  
                    u2615 0EE1                      u2551 0E60                      u1815 07EC  
                    u1911 0B06                      u1831 0A96                      u3271 0B9E  
                    u3255 0B8E                      u3191 0B25                      u3431 0769  
                    u3415 0755                      u3600 1780                      u2480 035D  
                    u2800 0FED                      u2720 0F5A                      u2560 0E67  
                    u1920 0B0C                      u1840 0AB2                      u3280 0BA3  
                    u3440 07BE                      u3601 177F                      u2481 035C  
                    u2801 0FEC                      u2721 0F59                      u2705 0F44  
                    u2625 0EEA                      u2561 0E66                      u1921 0B0B  
                    u1905 0AF7                      u3281 0BA2                      u3441 07BD  
                    u3610 0873                      u2490 036A                      u2730 0F6E  
                    u2650 0F11                      u2570 0E6C                      u2810 039B  
                    u1850 0ACE                      u3290 0BB8                      u1930 08B4  
                    u3450 07D0                      u2491 0369                      u2731 0F6D  
                    u2651 0F10                      u2571 0E6B                      u2811 039A  
                    u1851 0ACD                      u1931 08B3                      u3451 07CF  
                    u3620 0897                      u3460 16FF                      u2740 0F75  
                    u2660 0F2A                      u2580 0E87                      u2820 03A1  
                    u1860 0AD5                      u3461 16FE                      u2741 0F74  
                    u2661 0F29                      u2645 0EF8                      u2581 0E86  
                    u2901 045B                      u2821 03A0                      u1861 0AD4  
                    u1845 0AAD                      u3630 08A9                      u3470 170C  
                    u2750 0F7B                      u2670 0F32                      u2590 0EA5  
                    u2902 0462                      u2830 03A6                      u1950 08C6  
                    u3390 06F9                      u3631 08A8                      u3471 170B  
                    u2751 0F7A                      u2671 0F31                      u2655 0F0D  
                    u2591 0EA4                      u2911 0487                      u2903 0469  
                    u2831 03A5                      u3295 0BB3                      u1951 08C5  
                    u3391 06F8                      u2760 0F8D                      u2912 048E  
                    u2840 03C7                      u1880 0AEB                      u3640 0CB0  
                    u2761 0F8C                      u2921 04A3                      u2913 0495  
                    u2841 03C6                      u1881 0AEA                      u1945 08B8  
                    u3641 0CAF                      u2770 0F9C                      u2690 0F41  
                    u2922 04AA                      u2850 03CD                      u1890 0AF2  
                    u1970 08D7                      u3650 0D0B                      u3707 171F  
                    u2691 0F40                      u2923 04B1                      u2851 03CC  
                    u1891 0AF1                      u1875 0AD7                      u1971 08D6  
                    u3651 0D0A                      u2780 0FB9                      u2860 03D2  
                    u3660 0D64                      u3717 0947                      u2781 0FB8  
                    u2685 0F36                      u2941 04D9                      u2861 03D1  
                    u1965 08C7                      u3661 0D63                      u3590 176E  
                    u2790 0FD6                      u2942 04E0                      u2870 03E9  
                    u1990 08EB                      u3670 0DCA                      u3727 0957  
                    u3591 176D                      u2791 0FD5                      u2775 0F97  
                    u2951 0506                      u2943 04E7                      u2935 04B3  
                    u2871 03E8                      u1991 08EA                      u1975 08D3  
                    u3671 0DC9                      u2952 050D                      u2880 03EE  
                    u3737 0965                      u2785 0FB5                      u2953 0514  
                    u2881 03ED                      u1985 08DF                      u3747 1739  
                    u2795 0FD2                      u2971 053C                      u2891 043F  
                    u2972 0543                      u2892 0446                      u2981 0569  
                    u2973 054A                      u2965 0516                      u2893 044D  
                    u2982 0570                      u2991 0596                      u2983 0577  
                    u3687 09CF                      u2992 059D                      u3697 175B  
                    u2993 05A4                      i1l82 0A1D                      i1l78 0A1D  
                    _TMR0 0001         ?_Lcd_Write_String 0023                      _main 0C9C  
                    map@x 00B7                      btemp 007E                      start 000C  
      ??_Lcd_Write_String 0025           ___fldiv@new_exp 0040           __end_of_Lcd_Cmd 1742  
       ___bmul@multiplier 0023                     ??_map 0070                     ??_isr 0074  
           ___fltol@sign1 006E           __end_of___fladd 038A                     ?_main 0070  
         __end_of___fldiv 1000           __end_of___flmul 06EB           __end_of___fltol 0B1A  
         __end_of___lwdiv 08F0                     i1l210 16D8                     i1l146 16F6  
         __end_of___lwmod 1800                     _PORTB 0006                     _PORTD 0008  
                   _TRISB 0086                     _TRISC 0087                     _TRISD 0088  
        adc_start@channel 0021        adc_init@vref_minus 0021           __end_of_dpowers 081A  
                   map@x0 00B1                     map@x1 00B2                     map@y0 00B3  
                   map@y1 00B5                     _setup 178C                     pclath 000A  
                   status 0003                     wtemp0 007E           __end_of_sprintf 07D5  
        __end_of_Lcd_Init 0987          __end_of_Lcd_Port 16DF           __initialization 000F  
            __end_of_main 0E23                    ??_main 00B8              ?_tmr0_reload 0070  
                  _ADRESH 001E                    ?_setup 0070                    _ANSELH 0189  
        __end_of_adc_init 09D3          __end_of_adc_read 16F7                    i1l2630 16EF  
                  i1l2800 09FB                    i1l2802 0A00                    i1l2628 16EC  
                  i1l2804 0A0C                    i1l2806 0A11                    i1l2780 16D7  
                  i1l2790 09E8                    i1l2782 09D3                    i1l2792 09ED  
                  i1l2784 09D7                    i1l2778 16D3                    i1l2794 09EF  
                  i1l2786 09E1                    i1l2788 09E6                    i1l2796 09F0  
                  i1l2798 09F5                    u350_20 09E6                    u350_21 09E5  
                  u351_20 09ED                    u351_21 09EC                    u352_20 09FB  
                  u352_21 09FA                    u353_20 0A00                    u353_21 09FF  
                  u354_20 0A11                    u354_21 0A10                    u348_20 09D7  
                  u348_21 09D6                    u349_20 09E1                    u349_21 09E0  
               ??_Lcd_Cmd 0021          __end_of___xxtofl 0BD6             ?_init_osc_MHz 0070  
                  ___bmul 16F7                 ??___fladd 00A0                 ??___fldiv 0036  
               ??___flmul 0050                 ??___fltol 00AC                 ??___lwdiv 0024  
               ??___lwmod 002C          init_osc_MHz@freq 0022                    saved_w 007E  
               ??_sprintf 0033           Lcd_Set_Cursor@a 0026           Lcd_Set_Cursor@b 0024  
            ___xxtofl@arg 002A              ___xxtofl@exp 0029              ___xxtofl@val 0020  
 __end_of__initialization 0020            ??_init_osc_MHz 0020         __end_of_Lcd_Clear 16EC  
              ___fltol@f1 00A8       ___bmul@multiplicand 0020            __pcstackCOMMON 0070  
           __end_of_setup 17C4            _Lcd_Set_Cursor 1766            _OPTION_REGbits 0081  
               ?_Lcd_Init 0070            adc_init@adc_cs 0024                 ?_Lcd_Port 0070  
                 ??_setup 0025                __pbssBANK1 00BD         __end_of__Umul8_16 07FE  
              __pmaintext 0C9C                   ?___bmul 0020                __pintentry 0004  
  __end_of_Lcd_Set_Cursor 178C                 ?_adc_init 0020                 ?_adc_read 0070  
       __end_of_adc_start 1766                 ?___xxtofl 0020                ??_Lcd_Init 0024  
              ??_Lcd_Port 0020                __stringtab 0800            _Lcd_Write_Char 170E  
                 _Lcd_Cmd 1726                _init_POT_0 00C4                _init_POT_1 00C2  
                 ___fladd 0024                   ___fldiv 0E23                   ___flmul 038A  
                 ___fltol 0A88                   ___lwdiv 08AA                   ___lwmod 17C4  
                 _bandera 0078           ?_Lcd_Set_Cursor 0024                ??_adc_init 0022  
              ??_adc_read 0072                   __ptext1 06EB                   __ptext2 17C4  
                 __ptext3 08AA                   __ptext4 178C                   __ptext5 16DF  
                 __ptext6 0A24                   __ptext7 08F0                   __ptext8 0987  
                 __ptext9 0BD6      __end_of_init_osc_MHz 093B                   _dpowers 0810  
              ??___xxtofl 0024             i1_tmr0_reload 16D3                   _sprintf 06EB  
  __end_of_Lcd_Write_Char 1726      end_of_initialization 0020         __end_of_tmr0_init 0A88  
               Lcd_Port@a 0020                 _VAL_POT_0 00C6                 _VAL_POT_1 00C5  
               _PORTCbits 0007               ___fladd@grs 006D                 _VOLTAJE_0 00BF  
               _VOLTAJE_1 00BD             ___xxtofl@sign 0028            ?i1_tmr0_reload 0070  
             ___fldiv@grs 0042               ___fldiv@rem 003B           ?_Lcd_Write_Char 0070  
       Lcd_Write_String@a 0023         Lcd_Write_String@i 0028               ___flmul@grs 0056  
               _Lcd_Clear 16E5            __end_of___bmul 170E          _Lcd_Write_String 0864  
       adc_init@vref_plus 0020       start_initialization 000F               __end_of_map 0C9C  
             __end_of_isr 0A24                ?_Lcd_Clear 0070                  ??___bmul 0021  
               __Umul8_16 07D5           Lcd_Write_Char@a 0022             _ciclo_trabajo 0077  
               ___fladd@a 0066                 ___fladd@b 0062                 ___fldiv@a 002E  
               ___fldiv@b 0032           ??i1_tmr0_reload 0070                 ___flmul@a 004C  
               ___flmul@b 0048               __pbssCOMMON 0077                 ___latbits 0002  
           __pcstackBANK0 0020             __pcstackBANK1 00A0                 _dec_POT_0 00C3  
               _dec_POT_1 00C1                 _adc_start 1742                 _canal_ADC 0079  
                ?_Lcd_Cmd 0070               sprintf@flag 0037               sprintf@prec 0038  
            _init_osc_MHz 08F0          ___lwdiv@dividend 0022          ??_Lcd_Set_Cursor 0025  
                ?___fladd 0062                  ?___fldiv 002E                  ?___flmul 0048  
                ?___fltol 00A8                ?__Umul8_16 0020                  ?___lwdiv 0020  
                ?___lwmod 0028                 __pstrings 0800             ??_tmr0_reload 0020  
        ___lwdiv@quotient 0025                  ?_sprintf 002E                ?_adc_start 0070  
       interrupt_function 0004                 _tmr0_init 0A24                  _PIE1bits 008C  
                Lcd_Cmd@a 0023                  _PIR1bits 000C               ??_Lcd_Clear 0024  
      tmr0_init@prescaler 0020                _ADCON0bits 001F               __stringbase 080F  
              _ADCON1bits 009F          ??_Lcd_Write_Char 0021                  _Lcd_Init 093B  
                _Lcd_Port 16D9  __end_of_Lcd_Write_String 08AA       __end_of_tmr0_reload 16E5  
              ?_tmr0_init 0020               ??__Umul8_16 0022        __end_of__stringtab 0810  
                _adc_init 0987                  _adc_read 16EC                sprintf@val 0039  
                ___xxtofl 0B1A           ___lwdiv@divisor 0020           ___lwdiv@counter 0027  
                __ptext10 0B1A                  __ptext11 0A88                  __ptext20 1766  
                __ptext12 038A                  __ptext21 093B                  __ptext13 07D5  
                __ptext22 16E5                  __ptext14 0E23                  __ptext23 1726  
                __ptext15 0024                  __ptext24 16D9                  __ptext16 1742  
                __ptext25 09D3                  __ptext17 16F7                  __ptext26 16D3  
                __ptext18 0864                  __ptext27 16EC                  __ptext19 170E  
             ??_adc_start 0020                  _contador 007A                _INTCONbits 000B  
             _tmr0_reload 16DF                  intlevel1 0000                 sprintf@ap 0036  
               sprintf@sp 003B          ___lwmod@dividend 002A               ??_tmr0_init 0022  
               stringcode 080A                _OSCCONbits 008F        Lcd_Set_Cursor@temp 0027  
  __Umul8_16@multiplicand 0020                  sprintf@c 003C                  sprintf@f 002E  
         ___lwmod@divisor 0028           ___lwmod@counter 002D                  stringdir 080A  
                stringtab 0800     __end_ofi1_tmr0_reload 16D9             ___fladd@signs 006A  
            ___fladd@aexp 006B              ___fladd@bexp 006C      __Umul8_16@multiplier 0028  
       __Umul8_16@product 0024  
